ccopy_reg
_reconstructor
p1
(c__main__
MtpObjectInfoCacheTuple
p2
c__builtin__
tuple
p3
((lp4
g1
(cmtpdef
MtpObjectInfoTuple
p5
g3
(I65537
I12289
I0
I0
I0
I0
I0
I0
I0
I0
I0
I285229056
I1
I0
I0
V100PHTOO
p6
V19800000T000000
p7
V19800000T000000
p8
ttRp9
ag1
(g5
g3
(I65537
I12289
I0
I131072
I0
I0
I0
I0
I0
I0
I0
I0
I1
I0
I0
VDCIM
p10
V20170806T143250
p11
V20170806T143250
p12
ttRp13
ag1
(g5
g3
(I65537
I12289
I0
I131072
I0
I0
I0
I0
I0
I0
I0
I285229056
I1
I0
I0
V101D5300
p14
V20190216T154756
p15
V20190216T154756
p16
ttRp17
ag1
(g5
g3
(I65537
I14337
I0
I4053709
I14344
I8845
I160
I120
I4496
I3000
I0
I286867456
I0
I0
I0
VDSC_0001.JPG
p18
V20190216T154756
p19
V20190216T154756
p20
ttRp21
ag1
(g5
g3
(I65537
I12288
I0
I25185065
I14344
I8810
I160
I120
I6000
I4000
I0
I286867456
I0
I0
I0
VDSC_0001.NEF
p22
V20190216T154756
p23
V20190216T154756
p24
ttRp25
ag1
(g5
g3
(I65537
I14337
I0
I3662325
I14344
I8798
I160
I120
I4496
I3000
I0
I286867456
I0
I0
I0
VDSC_0002.JPG
p26
V20190216T154806
p27
V20190216T154806
p28
ttRp29
ag1
(g5
g3
(I65537
I12288
I0
I24490587
I14344
I8751
I160
I120
I6000
I4000
I0
I286867456
I0
I0
I0
VDSC_0002.NEF
p30
V20190216T154808
p31
V20190216T154808
p32
ttRp33
ag1
(g5
g3
(I65537
I14337
I0
I3453879
I14344
I9142
I160
I120
I4496
I3000
I0
I286867456
I0
I0
I0
VDSC_0003.JPG
p34
V20190216T154824
p35
V20190216T154824
p36
ttRp37
ag1
(g5
g3
(I65537
I12288
I0
I24810406
I14344
I9157
I160
I120
I6000
I4000
I0
I286867456
I0
I0
I0
VDSC_0003.NEF
p38
V20190216T154824
p39
V20190216T154824
p40
ttRp41
ag1
(g5
g3
(I65537
I14337
I0
I3997175
I14344
I8624
I160
I120
I4496
I3000
I0
I286867456
I0
I0
I0
VDSC_0004.JPG
p42
V20190216T155044
p43
V20190216T155044
p44
ttRp45
ag1
(g5
g3
(I65537
I12288
I0
I27953696
I14344
I8588
I160
I120
I6000
I4000
I0
I286867456
I0
I0
I0
VDSC_0004.NEF
p46
V20190216T155044
p47
V20190216T155044
p48
ttRp49
ag1
(g5
g3
(I65537
I14337
I0
I4013852
I14344
I8738
I160
I120
I4496
I3000
I0
I286867456
I0
I0
I0
VDSC_0005.JPG
p50
V20190216T155432
p51
V20190216T155432
p52
ttRp53
ag1
(g5
g3
(I65537
I12288
I0
I29995737
I14344
I8715
I160
I120
I6000
I4000
I0
I286867456
I0
I0
I0
VDSC_0005.NEF
p54
V20190216T155432
p55
V20190216T155432
p56
ttRp57
ag1
(g5
g3
(I65537
I14337
I0
I4198133
I14344
I8633
I160
I120
I4496
I3000
I0
I286867456
I0
I0
I0
VDSC_0006.JPG
p58
V20190216T155812
p59
V20190216T155812
p60
ttRp61
ag1
(g5
g3
(I65537
I12288
I0
I25198266
I14344
I8629
I160
I120
I6000
I4000
I0
I286867456
I0
I0
I0
VDSC_0006.NEF
p62
V20190216T155812
p63
V20190216T155812
p64
ttRp65
ag1
(g5
g3
(I65537
I14337
I0
I4159616
I14344
I8847
I160
I120
I4496
I3000
I0
I286867456
I0
I0
I0
VDSC_0007.JPG
p66
V20190216T155834
p67
V20190216T155834
p68
ttRp69
ag1
(g5
g3
(I65537
I12288
I0
I27569272
I14344
I8897
I160
I120
I6000
I4000
I0
I286867456
I0
I0
I0
VDSC_0007.NEF
p70
V20190216T155834
p71
V20190216T155834
p72
ttRp73
ag1
(g5
g3
(I65537
I14337
I0
I4035834
I14344
I8820
I160
I120
I4496
I3000
I0
I286867456
I0
I0
I0
VDSC_0008.JPG
p74
V20190216T160236
p75
V20190216T160236
p76
ttRp77
ag1
(g5
g3
(I65537
I12288
I0
I26576521
I14344
I8680
I160
I120
I6000
I4000
I0
I286867456
I0
I0
I0
VDSC_0008.NEF
p78
V20190216T160236
p79
V20190216T160236
p80
ttRp81
ag1
(g5
g3
(I65537
I14337
I0
I4041697
I14344
I8489
I160
I120
I4496
I3000
I0
I286867456
I0
I0
I0
VDSC_0009.JPG
p82
V20190216T160410
p83
V20190216T160410
p84
ttRp85
ag1
(g5
g3
(I65537
I12288
I0
I27864735
I14344
I8441
I160
I120
I6000
I4000
I0
I286867456
I0
I0
I0
VDSC_0009.NEF
p86
V20190216T160410
p87
V20190216T160410
p88
ttRp89
ag1
(g5
g3
(I65537
I14337
I0
I4226473
I14344
I8475
I160
I120
I4496
I3000
I0
I286867456
I0
I0
I0
VDSC_0010.JPG
p90
V20190216T160414
p91
V20190216T160414
p92
ttRp93
ag1
(g5
g3
(I65537
I12288
I0
I24691600
I14344
I8469
I160
I120
I6000
I4000
I0
I286867456
I0
I0
I0
VDSC_0010.NEF
p94
V20190216T160414
p95
V20190216T160414
p96
ttRp97
ag1
(g5
g3
(I65537
I14337
I0
I4092890
I14344
I8529
I160
I120
I4496
I3000
I0
I286867456
I0
I0
I0
VDSC_0011.JPG
p98
V20190216T161114
p99
V20190216T161114
p100
ttRp101
ag1
(g5
g3
(I65537
I12288
I0
I28670736
I14344
I8524
I160
I120
I6000
I4000
I0
I286867456
I0
I0
I0
VDSC_0011.NEF
p102
V20190216T161116
p103
V20190216T161116
p104
ttRp105
ag1
(g5
g3
(I65537
I14337
I0
I3988373
I14344
I8711
I160
I120
I4496
I3000
I0
I286867456
I0
I0
I0
VDSC_0012.JPG
p106
V20190216T161404
p107
V20190216T161404
p108
ttRp109
ag1
(g5
g3
(I65537
I12288
I0
I24722444
I14344
I8731
I160
I120
I6000
I4000
I0
I286867456
I0
I0
I0
VDSC_0012.NEF
p110
V20190216T161404
p111
V20190216T161404
p112
ttRp113
ag1
(g5
g3
(I65537
I14337
I0
I4058857
I14344
I8562
I160
I120
I4496
I3000
I0
I286867456
I0
I0
I0
VDSC_0013.JPG
p114
V20190216T161822
p115
V20190216T161822
p116
ttRp117
ag1
(g5
g3
(I65537
I12288
I0
I28320989
I14344
I8649
I160
I120
I6000
I4000
I0
I286867456
I0
I0
I0
VDSC_0013.NEF
p118
V20190216T161824
p119
V20190216T161824
p120
ttRp121
ag1
(g5
g3
(I65537
I14337
I0
I4033455
I14344
I8277
I160
I120
I4496
I3000
I0
I286867456
I0
I0
I0
VDSC_0014.JPG
p122
V20190216T162456
p123
V20190216T162456
p124
ttRp125
ag1
(g5
g3
(I65537
I12288
I0
I29946698
I14344
I8262
I160
I120
I6000
I4000
I0
I286867456
I0
I0
I0
VDSC_0014.NEF
p126
V20190216T162456
p127
V20190216T162456
p128
ttRp129
ag1
(g5
g3
(I65537
I14337
I0
I4031508
I14344
I8363
I160
I120
I4496
I3000
I0
I286867456
I0
I0
I0
VDSC_0015.JPG
p130
V20190216T163008
p131
V20190216T163008
p132
ttRp133
ag1
(g5
g3
(I65537
I12288
I0
I27690342
I14344
I8302
I160
I120
I6000
I4000
I0
I286867456
I0
I0
I0
VDSC_0015.NEF
p134
V20190216T163008
p135
V20190216T163008
p136
ttRp137
ag1
(g5
g3
(I65537
I14337
I0
I4097342
I14344
I8353
I160
I120
I4496
I3000
I0
I286867456
I0
I0
I0
VDSC_0016.JPG
p138
V20190216T163220
p139
V20190216T163220
p140
ttRp141
ag1
(g5
g3
(I65537
I12288
I0
I29749431
I14344
I8338
I160
I120
I6000
I4000
I0
I286867456
I0
I0
I0
VDSC_0016.NEF
p142
V20190216T163220
p143
V20190216T163220
p144
ttRp145
ag1
(g5
g3
(I65537
I14337
I0
I4010855
I14344
I8790
I160
I120
I4496
I3000
I0
I286867456
I0
I0
I0
VDSC_0017.JPG
p146
V20190216T163618
p147
V20190216T163618
p148
ttRp149
ag1
(g5
g3
(I65537
I12288
I0
I28770487
I14344
I8674
I160
I120
I6000
I4000
I0
I286867456
I0
I0
I0
VDSC_0017.NEF
p150
V20190216T163618
p151
V20190216T163618
p152
ttRp153
ag1
(g5
g3
(I65537
I14337
I0
I4050052
I14344
I8369
I160
I120
I4496
I3000
I0
I286867456
I0
I0
I0
VDSC_0018.JPG
p154
V20190216T164220
p155
V20190216T164220
p156
ttRp157
ag1
(g5
g3
(I65537
I12288
I0
I28236764
I14344
I8356
I160
I120
I6000
I4000
I0
I286867456
I0
I0
I0
VDSC_0018.NEF
p158
V20190216T164220
p159
V20190216T164220
p160
ttRp161
ag1
(g5
g3
(I65537
I14337
I0
I4036806
I14344
I8357
I160
I120
I4496
I3000
I0
I286867456
I0
I0
I0
VDSC_0019.JPG
p162
V20190216T164232
p163
V20190216T164232
p164
ttRp165
ag1
(g5
g3
(I65537
I12288
I0
I30339158
I14344
I8343
I160
I120
I6000
I4000
I0
I286867456
I0
I0
I0
VDSC_0019.NEF
p166
V20190216T164232
p167
V20190216T164232
p168
ttRp169
ag1
(g5
g3
(I65537
I14337
I0
I4443822
I14344
I8489
I160
I120
I4496
I3000
I0
I286867456
I0
I0
I0
VDSC_0020.JPG
p170
V20190216T165114
p171
V20190216T165114
p172
ttRp173
ag1
(g5
g3
(I65537
I12288
I0
I25689957
I14344
I8431
I160
I120
I6000
I4000
I0
I286867456
I0
I0
I0
VDSC_0020.NEF
p174
V20190216T165114
p175
V20190216T165114
p176
ttRp177
ag1
(g5
g3
(I65537
I14337
I0
I4107348
I14344
I8561
I160
I120
I4496
I3000
I0
I286867456
I0
I0
I0
VDSC_0021.JPG
p178
V20190216T165710
p179
V20190216T165710
p180
ttRp181
ag1
(g5
g3
(I65537
I12288
I0
I29312736
I14344
I8591
I160
I120
I6000
I4000
I0
I286867456
I0
I0
I0
VDSC_0021.NEF
p182
V20190216T165710
p183
V20190216T165710
p184
ttRp185
ag1
(g5
g3
(I65537
I14337
I0
I3539033
I14344
I8408
I160
I120
I4496
I3000
I0
I286867456
I0
I0
I0
VDSC_0022.JPG
p186
V20190216T171210
p187
V20190216T171210
p188
ttRp189
ag1
(g5
g3
(I65537
I12288
I0
I25649069
I14344
I8372
I160
I120
I6000
I4000
I0
I286867456
I0
I0
I0
VDSC_0022.NEF
p190
V20190216T171210
p191
V20190216T171210
p192
ttRp193
ag1
(g5
g3
(I65537
I14337
I0
I4078035
I14344
I8384
I160
I120
I4496
I3000
I0
I286867456
I0
I0
I0
VDSC_0023.JPG
p194
V20190216T171220
p195
V20190216T171220
p196
ttRp197
ag1
(g5
g3
(I65537
I12288
I0
I26171808
I14344
I8383
I160
I120
I6000
I4000
I0
I286867456
I0
I0
I0
VDSC_0023.NEF
p198
V20190216T171220
p199
V20190216T171220
p200
ttRp201
ag1
(g5
g3
(I65537
I14337
I0
I3727095
I14344
I8609
I160
I120
I4496
I3000
I0
I286867456
I0
I0
I0
VDSC_0024.JPG
p202
V20190216T171238
p203
V20190216T171238
p204
ttRp205
ag1
(g5
g3
(I65537
I12288
I0
I23694031
I14344
I8576
I160
I120
I6000
I4000
I0
I286867456
I0
I0
I0
VDSC_0024.NEF
p206
V20190216T171238
p207
V20190216T171238
p208
ttRp209
ag1
(g5
g3
(I65537
I14337
I0
I3881555
I14344
I8674
I160
I120
I4496
I3000
I0
I286867456
I0
I0
I0
VDSC_0025.JPG
p210
V20190216T171248
p211
V20190216T171248
p212
ttRp213
ag1
(g5
g3
(I65537
I12288
I0
I23840013
I14344
I8660
I160
I120
I6000
I4000
I0
I286867456
I0
I0
I0
VDSC_0025.NEF
p214
V20190216T171248
p215
V20190216T171248
p216
ttRp217
ag1
(g5
g3
(I65537
I14337
I0
I3681387
I14344
I8537
I160
I120
I4496
I3000
I0
I286867456
I0
I0
I0
VDSC_0026.JPG
p218
V20190216T171258
p219
V20190216T171258
p220
ttRp221
ag1
(g5
g3
(I65537
I12288
I0
I23570925
I14344
I8522
I160
I120
I6000
I4000
I0
I286867456
I0
I0
I0
VDSC_0026.NEF
p222
V20190216T171258
p223
V20190216T171258
p224
ttRp225
ag1
(g5
g3
(I65537
I14337
I0
I4099861
I14344
I8448
I160
I120
I4496
I3000
I0
I286867456
I0
I0
I0
VDSC_0027.JPG
p226
V20190216T171310
p227
V20190216T171310
p228
ttRp229
ag1
(g5
g3
(I65537
I12288
I0
I24590308
I14344
I8436
I160
I120
I6000
I4000
I0
I286867456
I0
I0
I0
VDSC_0027.NEF
p230
V20190216T171310
p231
V20190216T171310
p232
ttRp233
ag1
(g5
g3
(I65537
I14337
I0
I3931418
I14344
I8158
I160
I120
I4496
I3000
I0
I286867456
I0
I0
I0
VDSC_0028.JPG
p234
V20190216T171436
p235
V20190216T171436
p236
ttRp237
ag1
(g5
g3
(I65537
I12288
I0
I24180721
I14344
I8152
I160
I120
I6000
I4000
I0
I286867456
I0
I0
I0
VDSC_0028.NEF
p238
V20190216T171436
p239
V20190216T171436
p240
ttRp241
ag1
(g5
g3
(I65537
I14337
I0
I4000433
I14344
I8227
I160
I120
I4496
I3000
I0
I286867456
I0
I0
I0
VDSC_0029.JPG
p242
V20190216T171444
p243
V20190216T171444
p244
ttRp245
ag1
(g5
g3
(I65537
I12288
I0
I24400534
I14344
I8181
I160
I120
I6000
I4000
I0
I286867456
I0
I0
I0
VDSC_0029.NEF
p246
V20190216T171444
p247
V20190216T171444
p248
ttRp249
ag1
(g5
g3
(I65537
I14337
I0
I843260
I14344
I3896
I160
I120
I4496
I3000
I0
I286867456
I0
I0
I0
VDSC_0030.JPG
p250
V20190216T171456
p251
V20190216T171456
p252
ttRp253
ag1
(g5
g3
(I65537
I12288
I0
I19309508
I14344
I3454
I160
I120
I6000
I4000
I0
I286867456
I0
I0
I0
VDSC_0030.NEF
p254
V20190216T171456
p255
V20190216T171456
p256
ttRp257
ag1
(g5
g3
(I65537
I14337
I0
I4009010
I14344
I8256
I160
I120
I4496
I3000
I0
I286867456
I0
I0
I0
VDSC_0031.JPG
p258
V20190216T171806
p259
V20190216T171806
p260
ttRp261
ag1
(g5
g3
(I65537
I12288
I0
I26002376
I14344
I8154
I160
I120
I6000
I4000
I0
I286867456
I0
I0
I0
VDSC_0031.NEF
p262
V20190216T171806
p263
V20190216T171806
p264
ttRp265
ag1
(g5
g3
(I65537
I14337
I0
I4475543
I14344
I8150
I160
I120
I4496
I3000
I0
I286867456
I0
I0
I0
VDSC_0032.JPG
p266
V20190216T171844
p267
V20190216T171844
p268
ttRp269
ag1
(g5
g3
(I65537
I12288
I0
I25359939
I14344
I8116
I160
I120
I6000
I4000
I0
I286867456
I0
I0
I0
VDSC_0032.NEF
p270
V20190216T171844
p271
V20190216T171844
p272
ttRp273
ag1
(g5
g3
(I65537
I14337
I0
I4342081
I14344
I8492
I160
I120
I4496
I3000
I0
I286867456
I0
I0
I0
VDSC_0033.JPG
p274
V20190216T171852
p275
V20190216T171852
p276
ttRp277
ag1
(g5
g3
(I65537
I12288
I0
I26006524
I14344
I8465
I160
I120
I6000
I4000
I0
I286867456
I0
I0
I0
VDSC_0033.NEF
p278
V20190216T171852
p279
V20190216T171852
p280
ttRp281
ag1
(g5
g3
(I65537
I14337
I0
I4054076
I14344
I8232
I160
I120
I4496
I3000
I0
I286867456
I0
I0
I0
VDSC_0034.JPG
p282
V20190216T171854
p283
V20190216T171854
p284
ttRp285
ag1
(g5
g3
(I65537
I12288
I0
I24513921
I14344
I8148
I160
I120
I6000
I4000
I0
I286867456
I0
I0
I0
VDSC_0034.NEF
p286
V20190216T171854
p287
V20190216T171854
p288
ttRp289
ag1
(g5
g3
(I65537
I14337
I0
I4041088
I14344
I8367
I160
I120
I4496
I3000
I0
I286867456
I0
I0
I0
VDSC_0035.JPG
p290
V20190216T172854
p291
V20190216T172854
p292
ttRp293
ag1
(g5
g3
(I65537
I12288
I0
I27603710
I14344
I8328
I160
I120
I6000
I4000
I0
I286867456
I0
I0
I0
VDSC_0035.NEF
p294
V20190216T172854
p295
V20190216T172854
p296
ttRp297
ag1
(g5
g3
(I65537
I14337
I0
I4203009
I14344
I8657
I160
I120
I4496
I3000
I0
I286867456
I0
I0
I0
VDSC_0036.JPG
p298
V20190216T173136
p299
V20190216T173136
p300
ttRp301
ag1
(g5
g3
(I65537
I12288
I0
I24962949
I14344
I8558
I160
I120
I6000
I4000
I0
I286867456
I0
I0
I0
VDSC_0036.NEF
p302
V20190216T173136
p303
V20190216T173136
p304
ttRp305
ag1
(g5
g3
(I65537
I14337
I0
I4011564
I14344
I7958
I160
I120
I4496
I3000
I0
I286867456
I0
I0
I0
VDSC_0037.JPG
p306
V20190216T173244
p307
V20190216T173244
p308
ttRp309
ag1
(g5
g3
(I65537
I12288
I0
I26383292
I14344
I7871
I160
I120
I6000
I4000
I0
I286867456
I0
I0
I0
VDSC_0037.NEF
p310
V20190216T173244
p311
V20190216T173244
p312
ttRp313
ag1
(g5
g3
(I65537
I14337
I0
I3953793
I14344
I8773
I160
I120
I4496
I3000
I0
I286867456
I0
I0
I0
VDSC_0038.JPG
p314
V20190224T113300
p315
V20190224T113300
p316
ttRp317
ag1
(g5
g3
(I65537
I12288
I0
I29639663
I14344
I8760
I160
I120
I6000
I4000
I0
I286867456
I0
I0
I0
VDSC_0038.NEF
p318
V20190224T113302
p319
V20190224T113302
p320
ttRp321
ag1
(g5
g3
(I65537
I14337
I0
I3978704
I14344
I8792
I160
I120
I4496
I3000
I0
I286867456
I0
I0
I0
VDSC_0039.JPG
p322
V20190224T113332
p323
V20190224T113332
p324
ttRp325
ag1
(g5
g3
(I65537
I12288
I0
I31071479
I14344
I8741
I160
I120
I6000
I4000
I0
I286867456
I0
I0
I0
VDSC_0039.NEF
p326
V20190224T113332
p327
V20190224T113332
p328
ttRp329
ag1
(g5
g3
(I65537
I14337
I0
I3995827
I14344
I8926
I160
I120
I4496
I3000
I0
I286867456
I0
I0
I0
VDSC_0040.JPG
p330
V20190224T113342
p331
V20190224T113342
p332
ttRp333
ag1
(g5
g3
(I65537
I12288
I0
I30034398
I14344
I8892
I160
I120
I6000
I4000
I0
I286867456
I0
I0
I0
VDSC_0040.NEF
p334
V20190224T113342
p335
V20190224T113342
p336
ttRp337
ag1
(g5
g3
(I65537
I14337
I0
I4050568
I14344
I8792
I160
I120
I4496
I3000
I0
I286867456
I0
I0
I0
VDSC_0041.JPG
p338
V20190224T113356
p339
V20190224T113356
p340
ttRp341
ag1
(g5
g3
(I65537
I12288
I0
I28255353
I14344
I8778
I160
I120
I6000
I4000
I0
I286867456
I0
I0
I0
VDSC_0041.NEF
p342
V20190224T113358
p343
V20190224T113358
p344
ttRp345
ag1
(g5
g3
(I65537
I14337
I0
I4064717
I14344
I8782
I160
I120
I4496
I3000
I0
I286867456
I0
I0
I0
VDSC_0042.JPG
p346
V20190224T113854
p347
V20190224T113854
p348
ttRp349
ag1
(g5
g3
(I65537
I12288
I0
I28522896
I14344
I8673
I160
I120
I6000
I4000
I0
I286867456
I0
I0
I0
VDSC_0042.NEF
p350
V20190224T113854
p351
V20190224T113854
p352
ttRp353
ag1
(g5
g3
(I65537
I14337
I0
I3972257
I14344
I7946
I160
I120
I4496
I3000
I0
I286867456
I0
I0
I0
VDSC_0043.JPG
p354
V20190224T114746
p355
V20190224T114746
p356
ttRp357
ag1
(g5
g3
(I65537
I12288
I0
I24112971
I14344
I7962
I160
I120
I6000
I4000
I0
I286867456
I0
I0
I0
VDSC_0043.NEF
p358
V20190224T114746
p359
V20190224T114746
p360
ttRp361
ag1
(g5
g3
(I65537
I14337
I0
I4069432
I14344
I8046
I160
I120
I4496
I3000
I0
I286867456
I0
I0
I0
VDSC_0044.JPG
p362
V20190224T114750
p363
V20190224T114750
p364
ttRp365
ag1
(g5
g3
(I65537
I12288
I0
I24130564
I14344
I8031
I160
I120
I6000
I4000
I0
I286867456
I0
I0
I0
VDSC_0044.NEF
p366
V20190224T114750
p367
V20190224T114750
p368
ttRp369
ag1
(g5
g3
(I65537
I14337
I0
I3981543
I14344
I8110
I160
I120
I4496
I3000
I0
I286867456
I0
I0
I0
VDSC_0045.JPG
p370
V20190224T115212
p371
V20190224T115212
p372
ttRp373
ag1
(g5
g3
(I65537
I12288
I0
I25816342
I14344
I8042
I160
I120
I6000
I4000
I0
I286867456
I0
I0
I0
VDSC_0045.NEF
p374
V20190224T115214
p375
V20190224T115214
p376
ttRp377
ag1
(g5
g3
(I65537
I14337
I0
I4001394
I14344
I8204
I160
I120
I4496
I3000
I0
I286867456
I0
I0
I0
VDSC_0046.JPG
p378
V20190224T115224
p379
V20190224T115224
p380
ttRp381
ag1
(g5
g3
(I65537
I12288
I0
I29808538
I14344
I8202
I160
I120
I6000
I4000
I0
I286867456
I0
I0
I0
VDSC_0046.NEF
p382
V20190224T115224
p383
V20190224T115224
p384
ttRp385
ag1
(g5
g3
(I65537
I14337
I0
I4051787
I14344
I8100
I160
I120
I4496
I3000
I0
I286867456
I0
I0
I0
VDSC_0047.JPG
p386
V20190224T115414
p387
V20190224T115414
p388
ttRp389
ag1
(g5
g3
(I65537
I12288
I0
I26187580
I14344
I8070
I160
I120
I6000
I4000
I0
I286867456
I0
I0
I0
VDSC_0047.NEF
p390
V20190224T115414
p391
V20190224T115414
p392
ttRp393
ag1
(g5
g3
(I65537
I14337
I0
I4082020
I14344
I8364
I160
I120
I4496
I3000
I0
I286867456
I0
I0
I0
VDSC_0048.JPG
p394
V20190224T115424
p395
V20190224T115424
p396
ttRp397
ag1
(g5
g3
(I65537
I12288
I0
I29541777
I14344
I8375
I160
I120
I6000
I4000
I0
I286867456
I0
I0
I0
VDSC_0048.NEF
p398
V20190224T115424
p399
V20190224T115424
p400
ttRp401
ag1
(g5
g3
(I65537
I14337
I0
I3898712
I14344
I8832
I160
I120
I4496
I3000
I0
I286867456
I0
I0
I0
VDSC_0049.JPG
p402
V20190224T115642
p403
V20190224T115642
p404
ttRp405
ag1
(g5
g3
(I65537
I12288
I0
I27361193
I14344
I8747
I160
I120
I6000
I4000
I0
I286867456
I0
I0
I0
VDSC_0049.NEF
p406
V20190224T115642
p407
V20190224T115642
p408
ttRp409
ag1
(g5
g3
(I65537
I14337
I0
I3935515
I14344
I8597
I160
I120
I4496
I3000
I0
I286867456
I0
I0
I0
VDSC_0050.JPG
p410
V20190224T115650
p411
V20190224T115650
p412
ttRp413
ag1
(g5
g3
(I65537
I12288
I0
I29338284
I14344
I8567
I160
I120
I6000
I4000
I0
I286867456
I0
I0
I0
VDSC_0050.NEF
p414
V20190224T115650
p415
V20190224T115650
p416
ttRp417
ag1
(g5
g3
(I65537
I14337
I0
I4063000
I14344
I8314
I160
I120
I4496
I3000
I0
I286867456
I0
I0
I0
VDSC_0051.JPG
p418
V20190224T115832
p419
V20190224T115832
p420
ttRp421
ag1
(g5
g3
(I65537
I12288
I0
I27432097
I14344
I8342
I160
I120
I6000
I4000
I0
I286867456
I0
I0
I0
VDSC_0051.NEF
p422
V20190224T115832
p423
V20190224T115832
p424
ttRp425
ag1
(g5
g3
(I65537
I14337
I0
I4050734
I14344
I8381
I160
I120
I4496
I3000
I0
I286867456
I0
I0
I0
VDSC_0052.JPG
p426
V20190224T115838
p427
V20190224T115838
p428
ttRp429
ag1
(g5
g3
(I65537
I12288
I0
I27058996
I14344
I8371
I160
I120
I6000
I4000
I0
I286867456
I0
I0
I0
VDSC_0052.NEF
p430
V20190224T115838
p431
V20190224T115838
p432
ttRp433
ag1
(g5
g3
(I65537
I14337
I0
I3933466
I14344
I8588
I160
I120
I4496
I3000
I0
I286867456
I0
I0
I0
VDSC_0053.JPG
p434
V20190224T120310
p435
V20190224T120310
p436
ttRp437
ag1
(g5
g3
(I65537
I12288
I0
I28862471
I14344
I8561
I160
I120
I6000
I4000
I0
I286867456
I0
I0
I0
VDSC_0053.NEF
p438
V20190224T120310
p439
V20190224T120310
p440
ttRp441
ag1
(g5
g3
(I65537
I14337
I0
I4095564
I14344
I7861
I160
I120
I4496
I3000
I0
I286867456
I0
I0
I0
VDSC_0054.JPG
p442
V20190224T120644
p443
V20190224T120644
p444
ttRp445
ag1
(g5
g3
(I65537
I12288
I0
I27029237
I14344
I7812
I160
I120
I6000
I4000
I0
I286867456
I0
I0
I0
VDSC_0054.NEF
p446
V20190224T120644
p447
V20190224T120644
p448
ttRp449
ag1
(g5
g3
(I65537
I14337
I0
I3832340
I14344
I8738
I160
I120
I4496
I3000
I0
I286867456
I0
I0
I0
VDSC_0055.JPG
p450
V20190224T120818
p451
V20190224T120818
p452
ttRp453
ag1
(g5
g3
(I65537
I12288
I0
I25037131
I14344
I8677
I160
I120
I6000
I4000
I0
I286867456
I0
I0
I0
VDSC_0055.NEF
p454
V20190224T120818
p455
V20190224T120818
p456
ttRp457
ag1
(g5
g3
(I65537
I14337
I0
I4019392
I14344
I8590
I160
I120
I4496
I3000
I0
I286867456
I0
I0
I0
VDSC_0056.JPG
p458
V20190224T120830
p459
V20190224T120830
p460
ttRp461
ag1
(g5
g3
(I65537
I12288
I0
I24920276
I14344
I8481
I160
I120
I6000
I4000
I0
I286867456
I0
I0
I0
VDSC_0056.NEF
p462
V20190224T120830
p463
V20190224T120830
p464
ttRp465
ag1
(g5
g3
(I65537
I14337
I0
I4039136
I14344
I8058
I160
I120
I4496
I3000
I0
I286867456
I0
I0
I0
VDSC_0057.JPG
p466
V20190224T121736
p467
V20190224T121736
p468
ttRp469
ag1
(g5
g3
(I65537
I12288
I0
I25403935
I14344
I8036
I160
I120
I6000
I4000
I0
I286867456
I0
I0
I0
VDSC_0057.NEF
p470
V20190224T121736
p471
V20190224T121736
p472
ttRp473
ag1
(g5
g3
(I65537
I14337
I0
I4024453
I14344
I8214
I160
I120
I4496
I3000
I0
I286867456
I0
I0
I0
VDSC_0058.JPG
p474
V20190224T121748
p475
V20190224T121748
p476
ttRp477
ag1
(g5
g3
(I65537
I12288
I0
I28380480
I14344
I8256
I160
I120
I6000
I4000
I0
I286867456
I0
I0
I0
VDSC_0058.NEF
p478
V20190224T121748
p479
V20190224T121748
p480
ttRp481
ag1
(g5
g3
(I65537
I14337
I0
I3928443
I14344
I9089
I160
I120
I4496
I3000
I0
I286867456
I0
I0
I0
VDSC_0059.JPG
p482
V20190224T122638
p483
V20190224T122638
p484
ttRp485
ag1
(g5
g3
(I65537
I12288
I0
I25166935
I14344
I8859
I160
I120
I6000
I4000
I0
I286867456
I0
I0
I0
VDSC_0059.NEF
p486
V20190224T122638
p487
V20190224T122638
p488
ttRp489
ag1
(g5
g3
(I65537
I14337
I0
I4057913
I14344
I9046
I160
I120
I4496
I3000
I0
I286867456
I0
I0
I0
VDSC_0060.JPG
p490
V20190224T122652
p491
V20190224T122652
p492
ttRp493
ag1
(g5
g3
(I65537
I12288
I0
I25436705
I14344
I8833
I160
I120
I6000
I4000
I0
I286867456
I0
I0
I0
VDSC_0060.NEF
p494
V20190224T122652
p495
V20190224T122652
p496
ttRp497
ag1
(g5
g3
(I65537
I14337
I0
I4166618
I14344
I8831
I160
I120
I4496
I3000
I0
I286867456
I0
I0
I0
VDSC_0061.JPG
p498
V20190224T122658
p499
V20190224T122658
p500
ttRp501
ag1
(g5
g3
(I65537
I12288
I0
I25671801
I14344
I8815
I160
I120
I6000
I4000
I0
I286867456
I0
I0
I0
VDSC_0061.NEF
p502
V20190224T122658
p503
V20190224T122658
p504
ttRp505
ag1
(g5
g3
(I65537
I14337
I0
I3972598
I14344
I8668
I160
I120
I4496
I3000
I0
I286867456
I0
I0
I0
VDSC_0062.JPG
p506
V20190224T122816
p507
V20190224T122816
p508
ttRp509
ag1
(g5
g3
(I65537
I12288
I0
I26912306
I14344
I8588
I160
I120
I6000
I4000
I0
I286867456
I0
I0
I0
VDSC_0062.NEF
p510
V20190224T122816
p511
V20190224T122816
p512
ttRp513
ag1
(g5
g3
(I65537
I14337
I0
I4001722
I14344
I8566
I160
I120
I4496
I3000
I0
I286867456
I0
I0
I0
VDSC_0063.JPG
p514
V20190224T122824
p515
V20190224T122824
p516
ttRp517
ag1
(g5
g3
(I65537
I12288
I0
I27012754
I14344
I8447
I160
I120
I6000
I4000
I0
I286867456
I0
I0
I0
VDSC_0063.NEF
p518
V20190224T122824
p519
V20190224T122824
p520
ttRp521
ag1
(g5
g3
(I65537
I14337
I0
I4038051
I14344
I8442
I160
I120
I4496
I3000
I0
I286867456
I0
I0
I0
VDSC_0064.JPG
p522
V20190224T123054
p523
V20190224T123054
p524
ttRp525
ag1
(g5
g3
(I65537
I12288
I0
I31243370
I14344
I8466
I160
I120
I6000
I4000
I0
I286867456
I0
I0
I0
VDSC_0064.NEF
p526
V20190224T123054
p527
V20190224T123054
p528
ttRp529
ag1
(g5
g3
(I65537
I14337
I0
I4075846
I14344
I8403
I160
I120
I4496
I3000
I0
I286867456
I0
I0
I0
VDSC_0065.JPG
p530
V20190224T123104
p531
V20190224T123104
p532
ttRp533
ag1
(g5
g3
(I65537
I12288
I0
I30352553
I14344
I8399
I160
I120
I6000
I4000
I0
I286867456
I0
I0
I0
VDSC_0065.NEF
p534
V20190224T123104
p535
V20190224T123104
p536
ttRp537
ag1
(g5
g3
(I65537
I14337
I0
I4048480
I14344
I8358
I160
I120
I4496
I3000
I0
I286867456
I0
I0
I0
VDSC_0066.JPG
p538
V20190224T123316
p539
V20190224T123316
p540
ttRp541
ag1
(g5
g3
(I65537
I12288
I0
I26675314
I14344
I8340
I160
I120
I6000
I4000
I0
I286867456
I0
I0
I0
VDSC_0066.NEF
p542
V20190224T123316
p543
V20190224T123316
p544
ttRp545
ag1
(g5
g3
(I65537
I14337
I0
I4051533
I14344
I8455
I160
I120
I4496
I3000
I0
I286867456
I0
I0
I0
VDSC_0067.JPG
p546
V20190224T123322
p547
V20190224T123322
p548
ttRp549
ag1
(g5
g3
(I65537
I12288
I0
I27950240
I14344
I8465
I160
I120
I6000
I4000
I0
I286867456
I0
I0
I0
VDSC_0067.NEF
p550
V20190224T123324
p551
V20190224T123324
p552
ttRp553
ag1
(g5
g3
(I65537
I14337
I0
I3982013
I14344
I8601
I160
I120
I4496
I3000
I0
I286867456
I0
I0
I0
VDSC_0068.JPG
p554
V20190224T124138
p555
V20190224T124138
p556
ttRp557
ag1
(g5
g3
(I65537
I12288
I0
I27931832
I14344
I8515
I160
I120
I6000
I4000
I0
I286867456
I0
I0
I0
VDSC_0068.NEF
p558
V20190224T124140
p559
V20190224T124140
p560
ttRp561
ag1
(g5
g3
(I65537
I14337
I0
I4071686
I14344
I8578
I160
I120
I4496
I3000
I0
I286867456
I0
I0
I0
VDSC_0069.JPG
p562
V20190224T124148
p563
V20190224T124148
p564
ttRp565
ag1
(g5
g3
(I65537
I12288
I0
I28552596
I14344
I8533
I160
I120
I6000
I4000
I0
I286867456
I0
I0
I0
VDSC_0069.NEF
p566
V20190224T124148
p567
V20190224T124148
p568
ttRp569
ag1
(g5
g3
(I65537
I14337
I0
I4581948
I14344
I8015
I160
I120
I4496
I3000
I0
I286867456
I0
I0
I0
VDSC_0071.JPG
p570
V20190224T124524
p571
V20190224T124524
p572
ttRp573
ag1
(g5
g3
(I65537
I12288
I0
I25680587
I14344
I8007
I160
I120
I6000
I4000
I0
I286867456
I0
I0
I0
VDSC_0071.NEF
p574
V20190224T124524
p575
V20190224T124524
p576
ttRp577
ag1
(g5
g3
(I65537
I14337
I0
I4070730
I14344
I8041
I160
I120
I4496
I3000
I0
I286867456
I0
I0
I0
VDSC_0072.JPG
p578
V20190224T124530
p579
V20190224T124530
p580
ttRp581
ag1
(g5
g3
(I65537
I12288
I0
I29272410
I14344
I8041
I160
I120
I6000
I4000
I0
I286867456
I0
I0
I0
VDSC_0072.NEF
p582
V20190224T124530
p583
V20190224T124530
p584
ttRp585
ag1
(g5
g3
(I65537
I14337
I0
I2887748
I14344
I8988
I160
I120
I4496
I3000
I0
I286867456
I0
I0
I0
VDSC_0074.JPG
p586
V20190224T124954
p587
V20190224T124954
p588
ttRp589
ag1
(g5
g3
(I65537
I12288
I0
I24603147
I14344
I8726
I160
I120
I6000
I4000
I0
I286867456
I0
I0
I0
VDSC_0074.NEF
p590
V20190224T124956
p591
V20190224T124956
p592
ttRp593
ag1
(g5
g3
(I65537
I14337
I0
I3965393
I14344
I8736
I160
I120
I4496
I3000
I0
I286867456
I0
I0
I0
VDSC_0075.JPG
p594
V20190224T125032
p595
V20190224T125032
p596
ttRp597
ag1
(g5
g3
(I65537
I12288
I0
I29569343
I14344
I8692
I160
I120
I6000
I4000
I0
I286867456
I0
I0
I0
VDSC_0075.NEF
p598
V20190224T125032
p599
V20190224T125032
p600
ttRp601
ag1
(g5
g3
(I65537
I14337
I0
I3973279
I14344
I8862
I160
I120
I4496
I3000
I0
I286867456
I0
I0
I0
VDSC_0076.JPG
p602
V20190224T125042
p603
V20190224T125042
p604
ttRp605
ag1
(g5
g3
(I65537
I12288
I0
I29597310
I14344
I8772
I160
I120
I6000
I4000
I0
I286867456
I0
I0
I0
VDSC_0076.NEF
p606
V20190224T125042
p607
V20190224T125042
p608
ttRp609
ag1
(g5
g3
(I65537
I14337
I0
I4066495
I14344
I8747
I160
I120
I4496
I3000
I0
I286867456
I0
I0
I0
VDSC_0077.JPG
p610
V20190224T125052
p611
V20190224T125052
p612
ttRp613
ag1
(g5
g3
(I65537
I12288
I0
I28597638
I14344
I8688
I160
I120
I6000
I4000
I0
I286867456
I0
I0
I0
VDSC_0077.NEF
p614
V20190224T125052
p615
V20190224T125052
p616
ttRp617
ag1
(g5
g3
(I65537
I14337
I0
I3990041
I14344
I8660
I160
I120
I4496
I3000
I0
I286867456
I0
I0
I0
VDSC_0078.JPG
p618
V20190224T125112
p619
V20190224T125112
p620
ttRp621
ag1
(g5
g3
(I65537
I12288
I0
I29017502
I14344
I8591
I160
I120
I6000
I4000
I0
I286867456
I0
I0
I0
VDSC_0078.NEF
p622
V20190224T125114
p623
V20190224T125114
p624
ttRp625
ag1
(g5
g3
(I65537
I14337
I0
I4043838
I14344
I8969
I160
I120
I4496
I3000
I0
I286867456
I0
I0
I0
VDSC_0079.JPG
p626
V20190224T130130
p627
V20190224T130130
p628
ttRp629
ag1
(g5
g3
(I65537
I12288
I0
I24597340
I14344
I8971
I160
I120
I6000
I4000
I0
I286867456
I0
I0
I0
VDSC_0079.NEF
p630
V20190224T130130
p631
V20190224T130130
p632
ttRp633
ag1
(g5
g3
(I65537
I14337
I0
I4185873
I14344
I8951
I160
I120
I4496
I3000
I0
I286867456
I0
I0
I0
VDSC_0080.JPG
p634
V20190224T130144
p635
V20190224T130144
p636
ttRp637
ag1
(g5
g3
(I65537
I12288
I0
I25120899
I14344
I8973
I160
I120
I6000
I4000
I0
I286867456
I0
I0
I0
VDSC_0080.NEF
p638
V20190224T130144
p639
V20190224T130144
p640
ttRp641
ag1
(g5
g3
(I65537
I14337
I0
I4088210
I14344
I8440
I160
I120
I4496
I3000
I0
I286867456
I0
I0
I0
VDSC_0082.JPG
p642
V20190224T130454
p643
V20190224T130454
p644
ttRp645
ag1
(g5
g3
(I65537
I12288
I0
I26475214
I14344
I8426
I160
I120
I6000
I4000
I0
I286867456
I0
I0
I0
VDSC_0082.NEF
p646
V20190224T130454
p647
V20190224T130454
p648
ttRp649
ag1
(g5
g3
(I65537
I14337
I0
I4057660
I14344
I8498
I160
I120
I4496
I3000
I0
I286867456
I0
I0
I0
VDSC_0083.JPG
p650
V20190224T131116
p651
V20190224T131116
p652
ttRp653
ag1
(g5
g3
(I65537
I12288
I0
I29201503
I14344
I8496
I160
I120
I6000
I4000
I0
I286867456
I0
I0
I0
VDSC_0083.NEF
p654
V20190224T131116
p655
V20190224T131116
p656
ttRp657
ag1
(g5
g3
(I65537
I14337
I0
I4092016
I14344
I8841
I160
I120
I4496
I3000
I0
I286867456
I0
I0
I0
VDSC_0084.JPG
p658
V20190224T131238
p659
V20190224T131238
p660
ttRp661
ag1
(g5
g3
(I65537
I12288
I0
I29789512
I14344
I8805
I160
I120
I6000
I4000
I0
I286867456
I0
I0
I0
VDSC_0084.NEF
p662
V20190224T131238
p663
V20190224T131238
p664
ttRp665
ag1
(g5
g3
(I65537
I14337
I0
I4046728
I14344
I8673
I160
I120
I4496
I3000
I0
I286867456
I0
I0
I0
VDSC_0085.JPG
p666
V20190224T131336
p667
V20190224T131336
p668
ttRp669
ag1
(g5
g3
(I65537
I12288
I0
I29212759
I14344
I8664
I160
I120
I6000
I4000
I0
I286867456
I0
I0
I0
VDSC_0085.NEF
p670
V20190224T131336
p671
V20190224T131336
p672
ttRp673
ag1
(g5
g3
(I65537
I14337
I0
I4034597
I14344
I8597
I160
I120
I4496
I3000
I0
I286867456
I0
I0
I0
VDSC_0086.JPG
p674
V20190224T131346
p675
V20190224T131346
p676
ttRp677
ag1
(g5
g3
(I65537
I12288
I0
I28951986
I14344
I8586
I160
I120
I6000
I4000
I0
I286867456
I0
I0
I0
VDSC_0086.NEF
p678
V20190224T131346
p679
V20190224T131346
p680
ttRp681
ag1
(g5
g3
(I65537
I14337
I0
I2664190
I14344
I8775
I160
I120
I4496
I3000
I0
I286867456
I0
I0
I0
VDSC_0087.JPG
p682
V20190224T131610
p683
V20190224T131610
p684
ttRp685
ag1
(g5
g3
(I65537
I12288
I0
I21799048
I14344
I8519
I160
I120
I6000
I4000
I0
I286867456
I0
I0
I0
VDSC_0087.NEF
p686
V20190224T131610
p687
V20190224T131610
p688
ttRp689
ag1
(g5
g3
(I65537
I14337
I0
I4085564
I14344
I8621
I160
I120
I4496
I3000
I0
I286867456
I0
I0
I0
VDSC_0088.JPG
p690
V20190224T153140
p691
V20190224T153140
p692
ttRp693
ag1
(g5
g3
(I65537
I12288
I0
I26955465
I14344
I8649
I160
I120
I6000
I4000
I0
I286867456
I0
I0
I0
VDSC_0088.NEF
p694
V20190224T153140
p695
V20190224T153140
p696
ttRp697
ag1
(g5
g3
(I65537
I14337
I0
I4015752
I14344
I8502
I160
I120
I4496
I3000
I0
I286867456
I0
I0
I0
VDSC_0089.JPG
p698
V20190224T153216
p699
V20190224T153216
p700
ttRp701
ag1
(g5
g3
(I65537
I12288
I0
I30345575
I14344
I8461
I160
I120
I6000
I4000
I0
I286867456
I0
I0
I0
VDSC_0089.NEF
p702
V20190224T153216
p703
V20190224T153216
p704
ttRp705
ag1
(g5
g3
(I65537
I14337
I0
I4388352
I14344
I8821
I160
I120
I4496
I3000
I0
I286867456
I0
I0
I0
VDSC_0090.JPG
p706
V20190224T153504
p707
V20190224T153504
p708
ttRp709
ag1
(g5
g3
(I65537
I12288
I0
I28066211
I14344
I8814
I160
I120
I6000
I4000
I0
I286867456
I0
I0
I0
VDSC_0090.NEF
p710
V20190224T153504
p711
V20190224T153504
p712
ttRp713
ag1
(g5
g3
(I65537
I14337
I0
I4030453
I14344
I8496
I160
I120
I4496
I3000
I0
I286867456
I0
I0
I0
VDSC_0091.JPG
p714
V20190224T154020
p715
V20190224T154020
p716
ttRp717
ag1
(g5
g3
(I65537
I12288
I0
I30816791
I14344
I8498
I160
I120
I6000
I4000
I0
I286867456
I0
I0
I0
VDSC_0091.NEF
p718
V20190224T154020
p719
V20190224T154020
p720
ttRp721
ag1
(g5
g3
(I65537
I14337
I0
I3955897
I14344
I8324
I160
I120
I4496
I3000
I0
I286867456
I0
I0
I0
VDSC_0092.JPG
p722
V20190224T154028
p723
V20190224T154028
p724
ttRp725
ag1
(g5
g3
(I65537
I12288
I0
I30677921
I14344
I8374
I160
I120
I6000
I4000
I0
I286867456
I0
I0
I0
VDSC_0092.NEF
p726
V20190224T154028
p727
V20190224T154028
p728
ttRp729
ag1
(g5
g3
(I65537
I14337
I0
I4063464
I14344
I8101
I160
I120
I4496
I3000
I0
I286867456
I0
I0
I0
VDSC_0093.JPG
p730
V20190224T154032
p731
V20190224T154032
p732
ttRp733
ag1
(g5
g3
(I65537
I12288
I0
I29689672
I14344
I8100
I160
I120
I6000
I4000
I0
I286867456
I0
I0
I0
VDSC_0093.NEF
p734
V20190224T154032
p735
V20190224T154032
p736
ttRp737
ag1
(g5
g3
(I65537
I14337
I0
I4052575
I14344
I8491
I160
I120
I4496
I3000
I0
I286867456
I0
I0
I0
VDSC_0094.JPG
p738
V20190224T154036
p739
V20190224T154036
p740
ttRp741
ag1
(g5
g3
(I65537
I12288
I0
I31975333
I14344
I8489
I160
I120
I6000
I4000
I0
I286867456
I0
I0
I0
VDSC_0094.NEF
p742
V20190224T154038
p743
V20190224T154038
p744
ttRp745
ag1
(g5
g3
(I65537
I14337
I0
I4075895
I14344
I8753
I160
I120
I4496
I3000
I0
I286867456
I0
I0
I0
VDSC_0095.JPG
p746
V20190224T154942
p747
V20190224T154942
p748
ttRp749
ag1
(g5
g3
(I65537
I12288
I0
I29748636
I14344
I8827
I160
I120
I6000
I4000
I0
I286867456
I0
I0
I0
VDSC_0095.NEF
p750
V20190224T154942
p751
V20190224T154942
p752
ttRp753
ag1
(g5
g3
(I65537
I14337
I0
I4101530
I14344
I8366
I160
I120
I4496
I3000
I0
I286867456
I0
I0
I0
VDSC_0096.JPG
p754
V20190224T161050
p755
V20190224T161050
p756
ttRp757
ag1
(g5
g3
(I65537
I12288
I0
I27616334
I14344
I8363
I160
I120
I6000
I4000
I0
I286867456
I0
I0
I0
VDSC_0096.NEF
p758
V20190224T161050
p759
V20190224T161050
p760
ttRp761
ag1
(g5
g3
(I65537
I14337
I0
I3995144
I14344
I8707
I160
I120
I4496
I3000
I0
I286867456
I0
I0
I0
VDSC_0097.JPG
p762
V20190224T162450
p763
V20190224T162450
p764
ttRp765
ag1
(g5
g3
(I65537
I12288
I0
I29662344
I14344
I8664
I160
I120
I6000
I4000
I0
I286867456
I0
I0
I0
VDSC_0097.NEF
p766
V20190224T162450
p767
V20190224T162450
p768
ttRp769
ag1
(g5
g3
(I65537
I14337
I0
I4059865
I14344
I8772
I160
I120
I4496
I3000
I0
I286867456
I0
I0
I0
VDSC_0098.JPG
p770
V20190224T162454
p771
V20190224T162454
p772
ttRp773
ag1
(g5
g3
(I65537
I12288
I0
I29056405
I14344
I8762
I160
I120
I6000
I4000
I0
I286867456
I0
I0
I0
VDSC_0098.NEF
p774
V20190224T162454
p775
V20190224T162454
p776
ttRp777
ag1
(g5
g3
(I65537
I14337
I0
I4103783
I14344
I8840
I160
I120
I4496
I3000
I0
I286867456
I0
I0
I0
VDSC_0099.JPG
p778
V20190224T162956
p779
V20190224T162956
p780
ttRp781
ag1
(g5
g3
(I65537
I12288
I0
I27428817
I14344
I8817
I160
I120
I6000
I4000
I0
I286867456
I0
I0
I0
VDSC_0099.NEF
p782
V20190224T162956
p783
V20190224T162956
p784
ttRp785
ag1
(g5
g3
(I65537
I14337
I0
I2638891
I14344
I11521
I160
I120
I4496
I3000
I0
I286867456
I0
I0
I0
VDSC_0100.JPG
p786
V20190224T164348
p787
V20190224T164348
p788
ttRp789
ag1
(g5
g3
(I65537
I12288
I0
I21507268
I14344
I11417
I160
I120
I6000
I4000
I0
I286867456
I0
I0
I0
VDSC_0100.NEF
p790
V20190224T164348
p791
V20190224T164348
p792
ttRp793
ag1
(g5
g3
(I65537
I14337
I0
I2880448
I14344
I8573
I160
I120
I4496
I3000
I0
I286867456
I0
I0
I0
VDSC_0101.JPG
p794
V20190224T164358
p795
V20190224T164358
p796
ttRp797
ag1
(g5
g3
(I65537
I12288
I0
I21928552
I14344
I8470
I160
I120
I6000
I4000
I0
I286867456
I0
I0
I0
VDSC_0101.NEF
p798
V20190224T164358
p799
V20190224T164358
p800
ttRp801
ag1
(g5
g3
(I65537
I14337
I0
I4165686
I14344
I8371
I160
I120
I4496
I3000
I0
I286867456
I0
I0
I0
VDSC_0102.JPG
p802
V20190224T170126
p803
V20190224T170126
p804
ttRp805
ag1
(g5
g3
(I65537
I12288
I0
I24513368
I14344
I8290
I160
I120
I6000
I4000
I0
I286867456
I0
I0
I0
VDSC_0102.NEF
p806
V20190224T170126
p807
V20190224T170126
p808
ttRp809
ag1
(g5
g3
(I65537
I14337
I0
I2866945
I14344
I9007
I160
I120
I4496
I3000
I0
I286867456
I0
I0
I0
VDSC_0105.JPG
p810
V20190224T171100
p811
V20190224T171100
p812
ttRp813
ag1
(g5
g3
(I65537
I12288
I0
I22642334
I14344
I9025
I160
I120
I6000
I4000
I0
I286867456
I0
I0
I0
VDSC_0105.NEF
p814
V20190224T171100
p815
V20190224T171100
p816
ttRp817
ag1
(g5
g3
(I65537
I14337
I0
I4225201
I14344
I8549
I160
I120
I4496
I3000
I0
I286867456
I0
I0
I0
VDSC_0106.JPG
p818
V20190303T144514
p819
V20190303T144514
p820
ttRp821
ag1
(g5
g3
(I65537
I12288
I0
I25070458
I14344
I8462
I160
I120
I6000
I4000
I0
I286867456
I0
I0
I0
VDSC_0106.NEF
p822
V20190303T144514
p823
V20190303T144514
p824
ttRp825
ag1
(g5
g3
(I65537
I14337
I0
I4419510
I14344
I8236
I160
I120
I4496
I3000
I0
I286867456
I0
I0
I0
VDSC_0107.JPG
p826
V20190303T144720
p827
V20190303T144720
p828
ttRp829
ag1
(g5
g3
(I65537
I12288
I0
I26089512
I14344
I8049
I160
I120
I6000
I4000
I0
I286867456
I0
I0
I0
VDSC_0107.NEF
p830
V20190303T144720
p831
V20190303T144720
p832
ttRp833
ag1
(g5
g3
(I65537
I14337
I0
I4052773
I14344
I8357
I160
I120
I4496
I3000
I0
I286867456
I0
I0
I0
VDSC_0108.JPG
p834
V20190303T144940
p835
V20190303T144940
p836
ttRp837
ag1
(g5
g3
(I65537
I12288
I0
I29463087
I14344
I8365
I160
I120
I6000
I4000
I0
I286867456
I0
I0
I0
VDSC_0108.NEF
p838
V20190303T144940
p839
V20190303T144940
p840
ttRp841
ag1
(g5
g3
(I65537
I14337
I0
I3995673
I14344
I9011
I160
I120
I4496
I3000
I0
I286867456
I0
I0
I0
VDSC_0109.JPG
p842
V20190303T145340
p843
V20190303T145340
p844
ttRp845
ag1
(g5
g3
(I65537
I12288
I0
I30655576
I14344
I9006
I160
I120
I6000
I4000
I0
I286867456
I0
I0
I0
VDSC_0109.NEF
p846
V20190303T145342
p847
V20190303T145342
p848
ttRp849
ag1
(g5
g3
(I65537
I14337
I0
I4076334
I14344
I9041
I160
I120
I4496
I3000
I0
I286867456
I0
I0
I0
VDSC_0110.JPG
p850
V20190303T145346
p851
V20190303T145346
p852
ttRp853
ag1
(g5
g3
(I65537
I12288
I0
I30478729
I14344
I9023
I160
I120
I6000
I4000
I0
I286867456
I0
I0
I0
VDSC_0110.NEF
p854
V20190303T145346
p855
V20190303T145346
p856
ttRp857
ag1
(g5
g3
(I65537
I14337
I0
I4237298
I14344
I8609
I160
I120
I4496
I3000
I0
I286867456
I0
I0
I0
VDSC_0111.JPG
p858
V20190303T145518
p859
V20190303T145518
p860
ttRp861
ag1
(g5
g3
(I65537
I12288
I0
I24893473
I14344
I8456
I160
I120
I6000
I4000
I0
I286867456
I0
I0
I0
VDSC_0111.NEF
p862
V20190303T145518
p863
V20190303T145518
p864
ttRp865
ag1
(g5
g3
(I65537
I14337
I0
I3815967
I14344
I8573
I160
I120
I4496
I3000
I0
I286867456
I0
I0
I0
VDSC_0112.JPG
p866
V20190303T145526
p867
V20190303T145526
p868
ttRp869
ag1
(g5
g3
(I65537
I12288
I0
I24098994
I14344
I8514
I160
I120
I6000
I4000
I0
I286867456
I0
I0
I0
VDSC_0112.NEF
p870
V20190303T145526
p871
V20190303T145526
p872
ttRp873
ag1
(g5
g3
(I65537
I14337
I0
I3580858
I14344
I12489
I160
I120
I4496
I3000
I0
I286867456
I0
I0
I0
VDSC_0113.JPG
p874
V20190303T145636
p875
V20190303T145636
p876
ttRp877
ag1
(g5
g3
(I65537
I12288
I0
I23659657
I14344
I8333
I160
I120
I6000
I4000
I0
I286867456
I0
I0
I0
VDSC_0113.NEF
p878
V20190303T145636
p879
V20190303T145636
p880
ttRp881
ag1
(g5
g3
(I65537
I14337
I0
I4268524
I14344
I8744
I160
I120
I4496
I3000
I0
I286867456
I0
I0
I0
VDSC_0114.JPG
p882
V20190303T145800
p883
V20190303T145800
p884
ttRp885
ag1
(g5
g3
(I65537
I12288
I0
I24940151
I14344
I8562
I160
I120
I6000
I4000
I0
I286867456
I0
I0
I0
VDSC_0114.NEF
p886
V20190303T145800
p887
V20190303T145800
p888
ttRp889
ag1
(g5
g3
(I65537
I14337
I0
I2620162
I14344
I11013
I160
I120
I4496
I3000
I0
I286867456
I0
I0
I0
VDSC_0115.JPG
p890
V20190303T145806
p891
V20190303T145806
p892
ttRp893
ag1
(g5
g3
(I65537
I12288
I0
I21611977
I14344
I11211
I160
I120
I6000
I4000
I0
I286867456
I0
I0
I0
VDSC_0115.NEF
p894
V20190303T145806
p895
V20190303T145806
p896
ttRp897
ag1
(g5
g3
(I65537
I14337
I0
I3985848
I14344
I8814
I160
I120
I4496
I3000
I0
I286867456
I0
I0
I0
VDSC_0116.JPG
p898
V20190303T145820
p899
V20190303T145820
p900
ttRp901
ag1
(g5
g3
(I65537
I12288
I0
I24322809
I14344
I8634
I160
I120
I6000
I4000
I0
I286867456
I0
I0
I0
VDSC_0116.NEF
p902
V20190303T145820
p903
V20190303T145820
p904
ttRp905
ag1
(g5
g3
(I65537
I14337
I0
I3046836
I14344
I8237
I160
I120
I4496
I3000
I0
I286867456
I0
I0
I0
VDSC_0117.JPG
p906
V20190303T145828
p907
V20190303T145828
p908
ttRp909
ag1
(g5
g3
(I65537
I12288
I0
I22231632
I14344
I8213
I160
I120
I6000
I4000
I0
I286867456
I0
I0
I0
VDSC_0117.NEF
p910
V20190303T145828
p911
V20190303T145828
p912
ttRp913
ag1
(g5
g3
(I65537
I14337
I0
I4113941
I14344
I8484
I160
I120
I4496
I3000
I0
I286867456
I0
I0
I0
VDSC_0118.JPG
p914
V20190303T150108
p915
V20190303T150108
p916
ttRp917
ag1
(g5
g3
(I65537
I12288
I0
I28499515
I14344
I8474
I160
I120
I6000
I4000
I0
I286867456
I0
I0
I0
VDSC_0118.NEF
p918
V20190303T150108
p919
V20190303T150108
p920
ttRp921
ag1
(g5
g3
(I65537
I14337
I0
I4068973
I14344
I9147
I160
I120
I4496
I3000
I0
I286867456
I0
I0
I0
VDSC_0119.JPG
p922
V20190303T150232
p923
V20190303T150232
p924
ttRp925
ag1
(g5
g3
(I65537
I12288
I0
I26630532
I14344
I8922
I160
I120
I6000
I4000
I0
I286867456
I0
I0
I0
VDSC_0119.NEF
p926
V20190303T150232
p927
V20190303T150232
p928
ttRp929
ag1
(g5
g3
(I65537
I14337
I0
I4002795
I14344
I8460
I160
I120
I4496
I3000
I0
I286867456
I0
I0
I0
VDSC_0120.JPG
p930
V20190303T150626
p931
V20190303T150626
p932
ttRp933
ag1
(g5
g3
(I65537
I12288
I0
I25994783
I14344
I8416
I160
I120
I6000
I4000
I0
I286867456
I0
I0
I0
VDSC_0120.NEF
p934
V20190303T150626
p935
V20190303T150626
p936
ttRp937
ag1
(g5
g3
(I65537
I14337
I0
I4127083
I14344
I9197
I160
I120
I4496
I3000
I0
I286867456
I0
I0
I0
VDSC_0121.JPG
p938
V20190303T151204
p939
V20190303T151204
p940
ttRp941
ag1
(g5
g3
(I65537
I12288
I0
I27251415
I14344
I9177
I160
I120
I6000
I4000
I0
I286867456
I0
I0
I0
VDSC_0121.NEF
p942
V20190303T151204
p943
V20190303T151204
p944
ttRp945
ag1
(g5
g3
(I65537
I14337
I0
I3996574
I14344
I8673
I160
I120
I4496
I3000
I0
I286867456
I0
I0
I0
VDSC_0122.JPG
p946
V20190303T151212
p947
V20190303T151212
p948
ttRp949
ag1
(g5
g3
(I65537
I12288
I0
I28578519
I14344
I8680
I160
I120
I6000
I4000
I0
I286867456
I0
I0
I0
VDSC_0122.NEF
p950
V20190303T151212
p951
V20190303T151212
p952
ttRp953
ag1
(g5
g3
(I65537
I14337
I0
I4073362
I14344
I8466
I160
I120
I4496
I3000
I0
I286867456
I0
I0
I0
VDSC_0123.JPG
p954
V20190303T151408
p955
V20190303T151408
p956
ttRp957
ag1
(g5
g3
(I65537
I12288
I0
I27872649
I14344
I8459
I160
I120
I6000
I4000
I0
I286867456
I0
I0
I0
VDSC_0123.NEF
p958
V20190303T151408
p959
V20190303T151408
p960
ttRp961
ag1
(g5
g3
(I65537
I14337
I0
I4117627
I14344
I9056
I160
I120
I4496
I3000
I0
I286867456
I0
I0
I0
VDSC_0124.JPG
p962
V20190303T151556
p963
V20190303T151556
p964
ttRp965
ag1
(g5
g3
(I65537
I12288
I0
I27453616
I14344
I8980
I160
I120
I6000
I4000
I0
I286867456
I0
I0
I0
VDSC_0124.NEF
p966
V20190303T151556
p967
V20190303T151556
p968
ttRp969
ag1
(g5
g3
(I65537
I14337
I0
I4057244
I14344
I9071
I160
I120
I4496
I3000
I0
I286867456
I0
I0
I0
VDSC_0125.JPG
p970
V20190303T151600
p971
V20190303T151600
p972
ttRp973
ag1
(g5
g3
(I65537
I12288
I0
I28252970
I14344
I9071
I160
I120
I6000
I4000
I0
I286867456
I0
I0
I0
VDSC_0125.NEF
p974
V20190303T151600
p975
V20190303T151600
p976
ttRp977
ag1
(g5
g3
(I65537
I14337
I0
I3868623
I14344
I8078
I160
I120
I4496
I3000
I0
I286867456
I0
I0
I0
VDSC_0126.JPG
p978
V20190303T151744
p979
V20190303T151744
p980
ttRp981
ag1
(g5
g3
(I65537
I12288
I0
I23904455
I14344
I7996
I160
I120
I6000
I4000
I0
I286867456
I0
I0
I0
VDSC_0126.NEF
p982
V20190303T151744
p983
V20190303T151744
p984
ttRp985
ag1
(g5
g3
(I65537
I14337
I0
I3686873
I14344
I9027
I160
I120
I4496
I3000
I0
I286867456
I0
I0
I0
VDSC_0127.JPG
p986
V20190303T152818
p987
V20190303T152818
p988
ttRp989
ag1
(g5
g3
(I65537
I12288
I0
I23915672
I14344
I8989
I160
I120
I6000
I4000
I0
I286867456
I0
I0
I0
VDSC_0127.NEF
p990
V20190303T152818
p991
V20190303T152818
p992
ttRp993
ag1
(g5
g3
(I65537
I14337
I0
I3283509
I14344
I9173
I160
I120
I4496
I3000
I0
I286867456
I0
I0
I0
VDSC_0128.JPG
p994
V20190303T152824
p995
V20190303T152824
p996
ttRp997
ag1
(g5
g3
(I65537
I12288
I0
I22724252
I14344
I9014
I160
I120
I6000
I4000
I0
I286867456
I0
I0
I0
VDSC_0128.NEF
p998
V20190303T152824
p999
V20190303T152824
p1000
ttRp1001
ag1
(g5
g3
(I65537
I14337
I0
I4061046
I14344
I8858
I160
I120
I4496
I3000
I0
I286867456
I0
I0
I0
VDSC_0129.JPG
p1002
V20190303T153918
p1003
V20190303T153918
p1004
ttRp1005
ag1
(g5
g3
(I65537
I12288
I0
I31320123
I14344
I8885
I160
I120
I6000
I4000
I0
I286867456
I0
I0
I0
VDSC_0129.NEF
p1006
V20190303T153918
p1007
V20190303T153918
p1008
ttRp1009
ag1
(g5
g3
(I65537
I14337
I0
I4470381
I14344
I8193
I160
I120
I4496
I3000
I0
I286867456
I0
I0
I0
VDSC_0130.JPG
p1010
V20190303T155322
p1011
V20190303T155322
p1012
ttRp1013
ag1
(g5
g3
(I65537
I12288
I0
I25302871
I14344
I8169
I160
I120
I6000
I4000
I0
I286867456
I0
I0
I0
VDSC_0130.NEF
p1014
V20190303T155324
p1015
V20190303T155324
p1016
ttRp1017
ag1
(g5
g3
(I65537
I14337
I0
I4087565
I14344
I8447
I160
I120
I4496
I3000
I0
I286867456
I0
I0
I0
VDSC_0131.JPG
p1018
V20190303T155330
p1019
V20190303T155330
p1020
ttRp1021
ag1
(g5
g3
(I65537
I12288
I0
I27214906
I14344
I8437
I160
I120
I6000
I4000
I0
I286867456
I0
I0
I0
VDSC_0131.NEF
p1022
V20190303T155332
p1023
V20190303T155332
p1024
ttRp1025
ag1
(g5
g3
(I65537
I14337
I0
I4099736
I14344
I8492
I160
I120
I4496
I3000
I0
I286867456
I0
I0
I0
VDSC_0132.JPG
p1026
V20190303T155338
p1027
V20190303T155338
p1028
ttRp1029
ag1
(g5
g3
(I65537
I12288
I0
I27013673
I14344
I8443
I160
I120
I6000
I4000
I0
I286867456
I0
I0
I0
VDSC_0132.NEF
p1030
V20190303T155338
p1031
V20190303T155338
p1032
ttRp1033
ag1
(g5
g3
(I65537
I14337
I0
I4055023
I14344
I8971
I160
I120
I4496
I3000
I0
I286867456
I0
I0
I0
VDSC_0133.JPG
p1034
V20190303T155512
p1035
V20190303T155512
p1036
ttRp1037
ag1
(g5
g3
(I65537
I12288
I0
I27261745
I14344
I8954
I160
I120
I6000
I4000
I0
I286867456
I0
I0
I0
VDSC_0133.NEF
p1038
V20190303T155514
p1039
V20190303T155514
p1040
ttRp1041
ag1
(g5
g3
(I65537
I14337
I0
I4291412
I14344
I8836
I160
I120
I4496
I3000
I0
I286867456
I0
I0
I0
VDSC_0134.JPG
p1042
V20190303T155530
p1043
V20190303T155530
p1044
ttRp1045
ag1
(g5
g3
(I65537
I12288
I0
I24893333
I14344
I8743
I160
I120
I6000
I4000
I0
I286867456
I0
I0
I0
VDSC_0134.NEF
p1046
V20190303T155530
p1047
V20190303T155530
p1048
ttRp1049
ag1
(g5
g3
(I65537
I14337
I0
I4550103
I14344
I8331
I160
I120
I4496
I3000
I0
I286867456
I0
I0
I0
VDSC_0135.JPG
p1050
V20190303T155814
p1051
V20190303T155814
p1052
ttRp1053
ag1
(g5
g3
(I65537
I12288
I0
I25232350
I14344
I8312
I160
I120
I6000
I4000
I0
I286867456
I0
I0
I0
VDSC_0135.NEF
p1054
V20190303T155814
p1055
V20190303T155814
p1056
ttRp1057
ag1
(g5
g3
(I65537
I14337
I0
I4280324
I14344
I8267
I160
I120
I4496
I3000
I0
I286867456
I0
I0
I0
VDSC_0136.JPG
p1058
V20190303T155818
p1059
V20190303T155818
p1060
ttRp1061
ag1
(g5
g3
(I65537
I12288
I0
I24580731
I14344
I8264
I160
I120
I6000
I4000
I0
I286867456
I0
I0
I0
VDSC_0136.NEF
p1062
V20190303T155820
p1063
V20190303T155820
p1064
ttRp1065
ag1
(g5
g3
(I65537
I14337
I0
I4477188
I14344
I8913
I160
I120
I4496
I3000
I0
I286867456
I0
I0
I0
VDSC_0137.JPG
p1066
V20190303T155838
p1067
V20190303T155838
p1068
ttRp1069
ag1
(g5
g3
(I65537
I12288
I0
I26255817
I14344
I8902
I160
I120
I6000
I4000
I0
I286867456
I0
I0
I0
VDSC_0137.NEF
p1070
V20190303T155838
p1071
V20190303T155838
p1072
ttRp1073
ag1
(g5
g3
(I65537
I14337
I0
I4066647
I14344
I8288
I160
I120
I4496
I3000
I0
I286867456
I0
I0
I0
VDSC_0138.JPG
p1074
V20190303T161204
p1075
V20190303T161204
p1076
ttRp1077
ag1
(g5
g3
(I65537
I12288
I0
I28719958
I14344
I8315
I160
I120
I6000
I4000
I0
I286867456
I0
I0
I0
VDSC_0138.NEF
p1078
V20190303T161204
p1079
V20190303T161204
p1080
ttRp1081
ag1
(g5
g3
(I65537
I14337
I0
I4074632
I14344
I8406
I160
I120
I4496
I3000
I0
I286867456
I0
I0
I0
VDSC_0139.JPG
p1082
V20190303T161252
p1083
V20190303T161252
p1084
ttRp1085
ag1
(g5
g3
(I65537
I12288
I0
I29864948
I14344
I8430
I160
I120
I6000
I4000
I0
I286867456
I0
I0
I0
VDSC_0139.NEF
p1086
V20190303T161252
p1087
V20190303T161252
p1088
ttRp1089
ag1
(g5
g3
(I65537
I14337
I0
I4090233
I14344
I8109
I160
I120
I4496
I3000
I0
I286867456
I0
I0
I0
VDSC_0140.JPG
p1090
V20190303T161256
p1091
V20190303T161256
p1092
ttRp1093
ag1
(g5
g3
(I65537
I12288
I0
I27857172
I14344
I8192
I160
I120
I6000
I4000
I0
I286867456
I0
I0
I0
VDSC_0140.NEF
p1094
V20190303T161256
p1095
V20190303T161256
p1096
ttRp1097
ag1
(g5
g3
(I65537
I14337
I0
I4086624
I14344
I8139
I160
I120
I4496
I3000
I0
I286867456
I0
I0
I0
VDSC_0141.JPG
p1098
V20190303T161302
p1099
V20190303T161302
p1100
ttRp1101
ag1
(g5
g3
(I65537
I12288
I0
I26934958
I14344
I8130
I160
I120
I6000
I4000
I0
I286867456
I0
I0
I0
VDSC_0141.NEF
p1102
V20190303T161302
p1103
V20190303T161302
p1104
ttRp1105
ag1
(g5
g3
(I65537
I14337
I0
I4118912
I14344
I9100
I160
I120
I4496
I3000
I0
I286867456
I0
I0
I0
VDSC_0142.JPG
p1106
V20190407T130514
p1107
V20190407T130514
p1108
ttRp1109
ag1
(g5
g3
(I65537
I12288
I0
I26375445
I14344
I9108
I160
I120
I6000
I4000
I0
I286867456
I0
I0
I0
VDSC_0142.NEF
p1110
V20190407T130516
p1111
V20190407T130516
p1112
ttRp1113
ag1
(g5
g3
(I65537
I14337
I0
I4181160
I14344
I8617
I160
I120
I4496
I3000
I0
I286867456
I0
I0
I0
VDSC_0143.JPG
p1114
V20190407T130536
p1115
V20190407T130536
p1116
ttRp1117
ag1
(g5
g3
(I65537
I12288
I0
I25703734
I14344
I8607
I160
I120
I6000
I4000
I0
I286867456
I0
I0
I0
VDSC_0143.NEF
p1118
V20190407T130536
p1119
V20190407T130536
p1120
ttRp1121
ag1
(g5
g3
(I65537
I14337
I0
I4109672
I14344
I9040
I160
I120
I4496
I3000
I0
I286867456
I0
I0
I0
VDSC_0144.JPG
p1122
V20190407T130546
p1123
V20190407T130546
p1124
ttRp1125
ag1
(g5
g3
(I65537
I12288
I0
I28206933
I14344
I9029
I160
I120
I6000
I4000
I0
I286867456
I0
I0
I0
VDSC_0144.NEF
p1126
V20190407T130546
p1127
V20190407T130546
p1128
ttRp1129
ag1
(g5
g3
(I65537
I14337
I0
I3973300
I14344
I8998
I160
I120
I4496
I3000
I0
I286867456
I0
I0
I0
VDSC_0145.JPG
p1130
V20190407T130556
p1131
V20190407T130556
p1132
ttRp1133
ag1
(g5
g3
(I65537
I12288
I0
I27482401
I14344
I8991
I160
I120
I6000
I4000
I0
I286867456
I0
I0
I0
VDSC_0145.NEF
p1134
V20190407T130556
p1135
V20190407T130556
p1136
ttRp1137
ag1
(g5
g3
(I65537
I14337
I0
I4018457
I14344
I8878
I160
I120
I4496
I3000
I0
I286867456
I0
I0
I0
VDSC_0146.JPG
p1138
V20190407T130636
p1139
V20190407T130636
p1140
ttRp1141
ag1
(g5
g3
(I65537
I12288
I0
I27436214
I14344
I8878
I160
I120
I6000
I4000
I0
I286867456
I0
I0
I0
VDSC_0146.NEF
p1142
V20190407T130636
p1143
V20190407T130636
p1144
ttRp1145
ag1
(g5
g3
(I65537
I14337
I0
I4076241
I14344
I8755
I160
I120
I4496
I3000
I0
I286867456
I0
I0
I0
VDSC_0147.JPG
p1146
V20190407T130644
p1147
V20190407T130644
p1148
ttRp1149
ag1
(g5
g3
(I65537
I12288
I0
I27075338
I14344
I8748
I160
I120
I6000
I4000
I0
I286867456
I0
I0
I0
VDSC_0147.NEF
p1150
V20190407T130644
p1151
V20190407T130644
p1152
ttRp1153
ag1
(g5
g3
(I65537
I14337
I0
I4466164
I14344
I8857
I160
I120
I4496
I3000
I0
I286867456
I0
I0
I0
VDSC_0148.JPG
p1154
V20190407T130648
p1155
V20190407T130648
p1156
ttRp1157
ag1
(g5
g3
(I65537
I12288
I0
I26434809
I14344
I8776
I160
I120
I6000
I4000
I0
I286867456
I0
I0
I0
VDSC_0148.NEF
p1158
V20190407T130648
p1159
V20190407T130648
p1160
ttRp1161
ag1
(g5
g3
(I65537
I14337
I0
I4431787
I14344
I8985
I160
I120
I4496
I3000
I0
I286867456
I0
I0
I0
VDSC_0149.JPG
p1162
V20190407T130652
p1163
V20190407T130652
p1164
ttRp1165
ag1
(g5
g3
(I65537
I12288
I0
I26145391
I14344
I8981
I160
I120
I6000
I4000
I0
I286867456
I0
I0
I0
VDSC_0149.NEF
p1166
V20190407T130652
p1167
V20190407T130652
p1168
ttRp1169
ag1
(g5
g3
(I65537
I14337
I0
I2563254
I14344
I11594
I160
I120
I4496
I3000
I0
I286867456
I0
I0
I0
VDSC_0150.JPG
p1170
V20190407T130720
p1171
V20190407T130720
p1172
ttRp1173
ag1
(g5
g3
(I65537
I12288
I0
I21660043
I14344
I11778
I160
I120
I6000
I4000
I0
I286867456
I0
I0
I0
VDSC_0150.NEF
p1174
V20190407T130720
p1175
V20190407T130720
p1176
ttRp1177
ag1
(g5
g3
(I65537
I14337
I0
I2837234
I14344
I8630
I160
I120
I4496
I3000
I0
I286867456
I0
I0
I0
VDSC_0151.JPG
p1178
V20190407T130730
p1179
V20190407T130730
p1180
ttRp1181
ag1
(g5
g3
(I65537
I12288
I0
I22163322
I14344
I8441
I160
I120
I6000
I4000
I0
I286867456
I0
I0
I0
VDSC_0151.NEF
p1182
V20190407T130730
p1183
V20190407T130730
p1184
ttRp1185
ag1
(g5
g3
(I65537
I14337
I0
I3387035
I14344
I8823
I160
I120
I4496
I3000
I0
I286867456
I0
I0
I0
VDSC_0152.JPG
p1186
V20190407T130738
p1187
V20190407T130738
p1188
ttRp1189
ag1
(g5
g3
(I65537
I12288
I0
I23386947
I14344
I8734
I160
I120
I6000
I4000
I0
I286867456
I0
I0
I0
VDSC_0152.NEF
p1190
V20190407T130738
p1191
V20190407T130738
p1192
ttRp1193
ag1
(g5
g3
(I65537
I14337
I0
I3788048
I14344
I8672
I160
I120
I4496
I3000
I0
I286867456
I0
I0
I0
VDSC_0153.JPG
p1194
V20190407T130806
p1195
V20190407T130806
p1196
ttRp1197
ag1
(g5
g3
(I65537
I12288
I0
I24949418
I14344
I8671
I160
I120
I6000
I4000
I0
I286867456
I0
I0
I0
VDSC_0153.NEF
p1198
V20190407T130806
p1199
V20190407T130806
p1200
ttRp1201
ag1
(g5
g3
(I65537
I14337
I0
I3069396
I14344
I8666
I160
I120
I4496
I3000
I0
I286867456
I0
I0
I0
VDSC_0154.JPG
p1202
V20190407T130916
p1203
V20190407T130916
p1204
ttRp1205
ag1
(g5
g3
(I65537
I12288
I0
I22441243
I14344
I8382
I160
I120
I6000
I4000
I0
I286867456
I0
I0
I0
VDSC_0154.NEF
p1206
V20190407T130918
p1207
V20190407T130918
p1208
ttRp1209
ag1
(g5
g3
(I65537
I14337
I0
I3298961
I14344
I8348
I160
I120
I4496
I3000
I0
I286867456
I0
I0
I0
VDSC_0155.JPG
p1210
V20190407T130926
p1211
V20190407T130926
p1212
ttRp1213
ag1
(g5
g3
(I65537
I12288
I0
I22900696
I14344
I8294
I160
I120
I6000
I4000
I0
I286867456
I0
I0
I0
VDSC_0155.NEF
p1214
V20190407T130926
p1215
V20190407T130926
p1216
ttRp1217
ag1
(g5
g3
(I65537
I14337
I0
I3614188
I14344
I8577
I160
I120
I4496
I3000
I0
I286867456
I0
I0
I0
VDSC_0156.JPG
p1218
V20190407T131012
p1219
V20190407T131012
p1220
ttRp1221
ag1
(g5
g3
(I65537
I12288
I0
I23771635
I14344
I8565
I160
I120
I6000
I4000
I0
I286867456
I0
I0
I0
VDSC_0156.NEF
p1222
V20190407T131012
p1223
V20190407T131012
p1224
ttRp1225
ag1
(g5
g3
(I65537
I14337
I0
I2988523
I14344
I8524
I160
I120
I4496
I3000
I0
I286867456
I0
I0
I0
VDSC_0157.JPG
p1226
V20190407T131032
p1227
V20190407T131032
p1228
ttRp1229
ag1
(g5
g3
(I65537
I12288
I0
I22391495
I14344
I8454
I160
I120
I6000
I4000
I0
I286867456
I0
I0
I0
VDSC_0157.NEF
p1230
V20190407T131032
p1231
V20190407T131032
p1232
ttRp1233
ag1
(g5
g3
(I65537
I14337
I0
I2080923
I14344
I9093
I160
I120
I4496
I3000
I0
I286867456
I0
I0
I0
VDSC_0158.JPG
p1234
V20190407T131124
p1235
V20190407T131124
p1236
ttRp1237
ag1
(g5
g3
(I65537
I12288
I0
I20875579
I14344
I9353
I160
I120
I6000
I4000
I0
I286867456
I0
I0
I0
VDSC_0158.NEF
p1238
V20190407T131124
p1239
V20190407T131124
p1240
ttRp1241
ag1
(g5
g3
(I65537
I14337
I0
I2249586
I14344
I10222
I160
I120
I4496
I3000
I0
I286867456
I0
I0
I0
VDSC_0159.JPG
p1242
V20190407T131142
p1243
V20190407T131142
p1244
ttRp1245
ag1
(g5
g3
(I65537
I12288
I0
I21127534
I14344
I10412
I160
I120
I6000
I4000
I0
I286867456
I0
I0
I0
VDSC_0159.NEF
p1246
V20190407T131142
p1247
V20190407T131142
p1248
ttRp1249
ag1
(g5
g3
(I65537
I14337
I0
I3554350
I14344
I8917
I160
I120
I4496
I3000
I0
I286867456
I0
I0
I0
VDSC_0160.JPG
p1250
V20190407T131306
p1251
V20190407T131306
p1252
ttRp1253
ag1
(g5
g3
(I65537
I12288
I0
I23814888
I14344
I8924
I160
I120
I6000
I4000
I0
I286867456
I0
I0
I0
VDSC_0160.NEF
p1254
V20190407T131306
p1255
V20190407T131306
p1256
ttRp1257
ag1
(g5
g3
(I65537
I14337
I0
I3886057
I14344
I9042
I160
I120
I4496
I3000
I0
I286867456
I0
I0
I0
VDSC_0161.JPG
p1258
V20190407T131320
p1259
V20190407T131320
p1260
ttRp1261
ag1
(g5
g3
(I65537
I12288
I0
I24731477
I14344
I8827
I160
I120
I6000
I4000
I0
I286867456
I0
I0
I0
VDSC_0161.NEF
p1262
V20190407T131320
p1263
V20190407T131320
p1264
ttRp1265
ag1
(g5
g3
(I65537
I14337
I0
I3875557
I14344
I8911
I160
I120
I4496
I3000
I0
I286867456
I0
I0
I0
VDSC_0162.JPG
p1266
V20190407T131350
p1267
V20190407T131350
p1268
ttRp1269
ag1
(g5
g3
(I65537
I12288
I0
I24741951
I14344
I8923
I160
I120
I6000
I4000
I0
I286867456
I0
I0
I0
VDSC_0162.NEF
p1270
V20190407T131352
p1271
V20190407T131352
p1272
ttRp1273
ag1
(g5
g3
(I65537
I14337
I0
I3038606
I14344
I12355
I160
I120
I4496
I3000
I0
I286867456
I0
I0
I0
VDSC_0163.JPG
p1274
V20190407T131410
p1275
V20190407T131410
p1276
ttRp1277
ag1
(g5
g3
(I65537
I12288
I0
I22758292
I14344
I8663
I160
I120
I6000
I4000
I0
I286867456
I0
I0
I0
VDSC_0163.NEF
p1278
V20190407T131412
p1279
V20190407T131412
p1280
ttRp1281
ag1
(g5
g3
(I65537
I14337
I0
I3347066
I14344
I8795
I160
I120
I4496
I3000
I0
I286867456
I0
I0
I0
VDSC_0164.JPG
p1282
V20190407T131434
p1283
V20190407T131434
p1284
ttRp1285
ag1
(g5
g3
(I65537
I12288
I0
I23450280
I14344
I8826
I160
I120
I6000
I4000
I0
I286867456
I0
I0
I0
VDSC_0164.NEF
p1286
V20190407T131434
p1287
V20190407T131434
p1288
ttRp1289
ag1
(g5
g3
(I65537
I14337
I0
I3896820
I14344
I9124
I160
I120
I4496
I3000
I0
I286867456
I0
I0
I0
VDSC_0165.JPG
p1290
V20190407T131518
p1291
V20190407T131518
p1292
ttRp1293
ag1
(g5
g3
(I65537
I12288
I0
I24285679
I14344
I8876
I160
I120
I6000
I4000
I0
I286867456
I0
I0
I0
VDSC_0165.NEF
p1294
V20190407T131518
p1295
V20190407T131518
p1296
ttRp1297
ag1
(g5
g3
(I65537
I14337
I0
I3817260
I14344
I8996
I160
I120
I4496
I3000
I0
I286867456
I0
I0
I0
VDSC_0166.JPG
p1298
V20190407T131600
p1299
V20190407T131600
p1300
ttRp1301
ag1
(g5
g3
(I65537
I12288
I0
I25227618
I14344
I8987
I160
I120
I6000
I4000
I0
I286867456
I0
I0
I0
VDSC_0166.NEF
p1302
V20190407T131600
p1303
V20190407T131600
p1304
ttRp1305
ag1
(g5
g3
(I65537
I14337
I0
I2646990
I14344
I11014
I160
I120
I4496
I3000
I0
I286867456
I0
I0
I0
VDSC_0167.JPG
p1306
V20190407T131636
p1307
V20190407T131636
p1308
ttRp1309
ag1
(g5
g3
(I65537
I12288
I0
I21813880
I14344
I11155
I160
I120
I6000
I4000
I0
I286867456
I0
I0
I0
VDSC_0167.NEF
p1310
V20190407T131636
p1311
V20190407T131636
p1312
ttRp1313
ag1
(g5
g3
(I65537
I14337
I0
I2957517
I14344
I8810
I160
I120
I4496
I3000
I0
I286867456
I0
I0
I0
VDSC_0168.JPG
p1314
V20190407T131646
p1315
V20190407T131646
p1316
ttRp1317
ag1
(g5
g3
(I65537
I12288
I0
I22485464
I14344
I8577
I160
I120
I6000
I4000
I0
I286867456
I0
I0
I0
VDSC_0168.NEF
p1318
V20190407T131646
p1319
V20190407T131646
p1320
ttRp1321
ag1
(g5
g3
(I65537
I14337
I0
I835757
I14344
I3210
I160
I120
I4496
I3000
I0
I286867456
I0
I0
I0
VDSC_0169.JPG
p1322
V20190407T132224
p1323
V20190407T132224
p1324
ttRp1325
ag1
(g5
g3
(I65537
I12288
I0
I19345737
I14344
I2938
I160
I120
I6000
I4000
I0
I286867456
I0
I0
I0
VDSC_0169.NEF
p1326
V20190407T132224
p1327
V20190407T132224
p1328
ttRp1329
ag1
(g5
g3
(I65537
I14337
I0
I1496755
I14344
I5686
I160
I120
I4496
I3000
I0
I286867456
I0
I0
I0
VDSC_0170.JPG
p1330
V20190407T132236
p1331
V20190407T132236
p1332
ttRp1333
ag1
(g5
g3
(I65537
I12288
I0
I19996991
I14344
I5517
I160
I120
I6000
I4000
I0
I286867456
I0
I0
I0
VDSC_0170.NEF
p1334
V20190407T132236
p1335
V20190407T132236
p1336
ttRp1337
ag1
(g5
g3
(I65537
I14337
I0
I1689421
I14344
I6300
I160
I120
I4496
I3000
I0
I286867456
I0
I0
I0
VDSC_0171.JPG
p1338
V20190407T132452
p1339
V20190407T132452
p1340
ttRp1341
ag1
(g5
g3
(I65537
I12288
I0
I20297339
I14344
I6155
I160
I120
I6000
I4000
I0
I286867456
I0
I0
I0
VDSC_0171.NEF
p1342
V20190407T132452
p1343
V20190407T132452
p1344
ttRp1345
ag1
(g5
g3
(I65537
I14337
I0
I3346600
I14344
I8414
I160
I120
I4496
I3000
I0
I286867456
I0
I0
I0
VDSC_0172.JPG
p1346
V20190407T132556
p1347
V20190407T132556
p1348
ttRp1349
ag1
(g5
g3
(I65537
I12288
I0
I22981177
I14344
I8358
I160
I120
I6000
I4000
I0
I286867456
I0
I0
I0
VDSC_0172.NEF
p1350
V20190407T132556
p1351
V20190407T132556
p1352
ttRp1353
ag1
(g5
g3
(I65537
I14337
I0
I3384561
I14344
I8585
I160
I120
I4496
I3000
I0
I286867456
I0
I0
I0
VDSC_0173.JPG
p1354
V20190407T132634
p1355
V20190407T132634
p1356
ttRp1357
ag1
(g5
g3
(I65537
I12288
I0
I23326314
I14344
I8388
I160
I120
I6000
I4000
I0
I286867456
I0
I0
I0
VDSC_0173.NEF
p1358
V20190407T132634
p1359
V20190407T132634
p1360
ttRp1361
ag1
(g5
g3
(I65537
I14337
I0
I3693954
I14344
I8390
I160
I120
I4496
I3000
I0
I286867456
I0
I0
I0
VDSC_0174.JPG
p1362
V20190407T132736
p1363
V20190407T132736
p1364
ttRp1365
ag1
(g5
g3
(I65537
I12288
I0
I24065400
I14344
I8319
I160
I120
I6000
I4000
I0
I286867456
I0
I0
I0
VDSC_0174.NEF
p1366
V20190407T132736
p1367
V20190407T132736
p1368
ttRp1369
ag1
(g5
g3
(I65537
I14337
I0
I4138145
I14344
I8297
I160
I120
I4496
I3000
I0
I286867456
I0
I0
I0
VDSC_0175.JPG
p1370
V20190407T132758
p1371
V20190407T132758
p1372
ttRp1373
ag1
(g5
g3
(I65537
I12288
I0
I25160056
I14344
I8285
I160
I120
I6000
I4000
I0
I286867456
I0
I0
I0
VDSC_0175.NEF
p1374
V20190407T132758
p1375
V20190407T132758
p1376
ttRp1377
ag1
(g5
g3
(I65537
I14337
I0
I4183565
I14344
I8391
I160
I120
I4496
I3000
I0
I286867456
I0
I0
I0
VDSC_0176.JPG
p1378
V20190407T132808
p1379
V20190407T132808
p1380
ttRp1381
ag1
(g5
g3
(I65537
I12288
I0
I25139638
I14344
I8336
I160
I120
I6000
I4000
I0
I286867456
I0
I0
I0
VDSC_0176.NEF
p1382
V20190407T132808
p1383
V20190407T132808
p1384
ttRp1385
ag1
(g5
g3
(I65537
I14337
I0
I3078551
I14344
I8704
I160
I120
I4496
I3000
I0
I286867456
I0
I0
I0
VDSC_0177.JPG
p1386
V20190407T132822
p1387
V20190407T132822
p1388
ttRp1389
ag1
(g5
g3
(I65537
I12288
I0
I22836642
I14344
I8450
I160
I120
I6000
I4000
I0
I286867456
I0
I0
I0
VDSC_0177.NEF
p1390
V20190407T132822
p1391
V20190407T132822
p1392
ttRp1393
ag1
(g5
g3
(I65537
I14337
I0
I3466422
I14344
I8970
I160
I120
I4496
I3000
I0
I286867456
I0
I0
I0
VDSC_0178.JPG
p1394
V20190407T132838
p1395
V20190407T132838
p1396
ttRp1397
ag1
(g5
g3
(I65537
I12288
I0
I24499589
I14344
I8972
I160
I120
I6000
I4000
I0
I286867456
I0
I0
I0
VDSC_0178.NEF
p1398
V20190407T132838
p1399
V20190407T132838
p1400
ttRp1401
ag1
(g5
g3
(I65537
I14337
I0
I2652382
I14344
I12167
I160
I120
I4496
I3000
I0
I286867456
I0
I0
I0
VDSC_0179.JPG
p1402
V20190407T132930
p1403
V20190407T132930
p1404
ttRp1405
ag1
(g5
g3
(I65537
I12288
I0
I22105949
I14344
I12381
I160
I120
I6000
I4000
I0
I286867456
I0
I0
I0
VDSC_0179.NEF
p1406
V20190407T132930
p1407
V20190407T132930
p1408
ttRp1409
ag1
(g5
g3
(I65537
I14337
I0
I2910177
I14344
I8913
I160
I120
I4496
I3000
I0
I286867456
I0
I0
I0
VDSC_0180.JPG
p1410
V20190407T132940
p1411
V20190407T132940
p1412
ttRp1413
ag1
(g5
g3
(I65537
I12288
I0
I22503255
I14344
I8765
I160
I120
I6000
I4000
I0
I286867456
I0
I0
I0
VDSC_0180.NEF
p1414
V20190407T132940
p1415
V20190407T132940
p1416
ttRp1417
ag1
(g5
g3
(I65537
I14337
I0
I2696319
I14344
I8631
I160
I120
I4496
I3000
I0
I286867456
I0
I0
I0
VDSC_0181.JPG
p1418
V20190407T132948
p1419
V20190407T132948
p1420
ttRp1421
ag1
(g5
g3
(I65537
I12288
I0
I21949963
I14344
I8332
I160
I120
I6000
I4000
I0
I286867456
I0
I0
I0
VDSC_0181.NEF
p1422
V20190407T132948
p1423
V20190407T132948
p1424
ttRp1425
ag1
(g5
g3
(I65537
I14337
I0
I2893517
I14344
I8795
I160
I120
I4496
I3000
I0
I286867456
I0
I0
I0
VDSC_0182.JPG
p1426
V20190407T133118
p1427
V20190407T133118
p1428
ttRp1429
ag1
(g5
g3
(I65537
I12288
I0
I22108640
I14344
I8613
I160
I120
I6000
I4000
I0
I286867456
I0
I0
I0
VDSC_0182.NEF
p1430
V20190407T133118
p1431
V20190407T133118
p1432
ttRp1433
ag1
(g5
g3
(I65537
I14337
I0
I2922822
I14344
I8713
I160
I120
I4496
I3000
I0
I286867456
I0
I0
I0
VDSC_0183.JPG
p1434
V20190407T133132
p1435
V20190407T133132
p1436
ttRp1437
ag1
(g5
g3
(I65537
I12288
I0
I22123124
I14344
I8724
I160
I120
I6000
I4000
I0
I286867456
I0
I0
I0
VDSC_0183.NEF
p1438
V20190407T133132
p1439
V20190407T133132
p1440
ttRp1441
ag1
(g5
g3
(I65537
I14337
I0
I3926990
I14344
I8609
I160
I120
I4496
I3000
I0
I286867456
I0
I0
I0
VDSC_0184.JPG
p1442
V20190407T133138
p1443
V20190407T133138
p1444
ttRp1445
ag1
(g5
g3
(I65537
I12288
I0
I24854226
I14344
I8597
I160
I120
I6000
I4000
I0
I286867456
I0
I0
I0
VDSC_0184.NEF
p1446
V20190407T133140
p1447
V20190407T133140
p1448
ttRp1449
ag1
(g5
g3
(I65537
I14337
I0
I3705473
I14344
I8582
I160
I120
I4496
I3000
I0
I286867456
I0
I0
I0
VDSC_0185.JPG
p1450
V20190407T133150
p1451
V20190407T133150
p1452
ttRp1453
ag1
(g5
g3
(I65537
I12288
I0
I23762791
I14344
I8539
I160
I120
I6000
I4000
I0
I286867456
I0
I0
I0
VDSC_0185.NEF
p1454
V20190407T133150
p1455
V20190407T133150
p1456
ttRp1457
ag1
(g5
g3
(I65537
I14337
I0
I4027140
I14344
I8576
I160
I120
I4496
I3000
I0
I286867456
I0
I0
I0
VDSC_0186.JPG
p1458
V20190407T133210
p1459
V20190407T133210
p1460
ttRp1461
ag1
(g5
g3
(I65537
I12288
I0
I24805357
I14344
I8503
I160
I120
I6000
I4000
I0
I286867456
I0
I0
I0
VDSC_0186.NEF
p1462
V20190407T133210
p1463
V20190407T133210
p1464
ttRp1465
ag1
(g5
g3
(I65537
I14337
I0
I4242574
I14344
I8513
I160
I120
I4496
I3000
I0
I286867456
I0
I0
I0
VDSC_0187.JPG
p1466
V20190407T133222
p1467
V20190407T133222
p1468
ttRp1469
ag1
(g5
g3
(I65537
I12288
I0
I25170152
I14344
I8483
I160
I120
I6000
I4000
I0
I286867456
I0
I0
I0
VDSC_0187.NEF
p1470
V20190407T133222
p1471
V20190407T133222
p1472
ttRp1473
ag1
(g5
g3
(I65537
I14337
I0
I3642208
I14344
I8895
I160
I120
I4496
I3000
I0
I286867456
I0
I0
I0
VDSC_0188.JPG
p1474
V20190407T133254
p1475
V20190407T133254
p1476
ttRp1477
ag1
(g5
g3
(I65537
I12288
I0
I23679340
I14344
I8755
I160
I120
I6000
I4000
I0
I286867456
I0
I0
I0
VDSC_0188.NEF
p1478
V20190407T133254
p1479
V20190407T133254
p1480
ttRp1481
ag1
(g5
g3
(I65537
I14337
I0
I3815823
I14344
I8409
I160
I120
I4496
I3000
I0
I286867456
I0
I0
I0
VDSC_0189.JPG
p1482
V20190407T133406
p1483
V20190407T133406
p1484
ttRp1485
ag1
(g5
g3
(I65537
I12288
I0
I24517132
I14344
I8434
I160
I120
I6000
I4000
I0
I286867456
I0
I0
I0
VDSC_0189.NEF
p1486
V20190407T133406
p1487
V20190407T133406
p1488
ttRp1489
ag1
(g5
g3
(I65537
I14337
I0
I3401359
I14344
I8198
I160
I120
I4496
I3000
I0
I286867456
I0
I0
I0
VDSC_0190.JPG
p1490
V20190407T133420
p1491
V20190407T133420
p1492
ttRp1493
ag1
(g5
g3
(I65537
I12288
I0
I23176910
I14344
I8109
I160
I120
I6000
I4000
I0
I286867456
I0
I0
I0
VDSC_0190.NEF
p1494
V20190407T133420
p1495
V20190407T133420
p1496
ttRp1497
ag1
(g5
g3
(I65537
I14337
I0
I3364978
I14344
I8906
I160
I120
I4496
I3000
I0
I286867456
I0
I0
I0
VDSC_0191.JPG
p1498
V20190407T133704
p1499
V20190407T133704
p1500
ttRp1501
ag1
(g5
g3
(I65537
I12288
I0
I24199658
I14344
I8861
I160
I120
I6000
I4000
I0
I286867456
I0
I0
I0
VDSC_0191.NEF
p1502
V20190407T133704
p1503
V20190407T133704
p1504
ttRp1505
ag1
(g5
g3
(I65537
I14337
I0
I3459808
I14344
I9106
I160
I120
I4496
I3000
I0
I286867456
I0
I0
I0
VDSC_0192.JPG
p1506
V20190407T133714
p1507
V20190407T133714
p1508
ttRp1509
ag1
(g5
g3
(I65537
I12288
I0
I24368982
I14344
I9085
I160
I120
I6000
I4000
I0
I286867456
I0
I0
I0
VDSC_0192.NEF
p1510
V20190407T133714
p1511
V20190407T133714
p1512
ttRp1513
ag1
(g5
g3
(I65537
I14337
I0
I4116103
I14344
I9101
I160
I120
I4496
I3000
I0
I286867456
I0
I0
I0
VDSC_0193.JPG
p1514
V20190407T133802
p1515
V20190407T133802
p1516
ttRp1517
ag1
(g5
g3
(I65537
I12288
I0
I28021083
I14344
I9109
I160
I120
I6000
I4000
I0
I286867456
I0
I0
I0
VDSC_0193.NEF
p1518
V20190407T133802
p1519
V20190407T133802
p1520
ttRp1521
ag1
(g5
g3
(I65537
I14337
I0
I3999876
I14344
I8670
I160
I120
I4496
I3000
I0
I286867456
I0
I0
I0
VDSC_0194.JPG
p1522
V20190407T133810
p1523
V20190407T133810
p1524
ttRp1525
ag1
(g5
g3
(I65537
I12288
I0
I28099614
I14344
I8651
I160
I120
I6000
I4000
I0
I286867456
I0
I0
I0
VDSC_0194.NEF
p1526
V20190407T133810
p1527
V20190407T133810
p1528
ttRp1529
ag1
(g5
g3
(I65537
I14337
I0
I4067406
I14344
I8675
I160
I120
I4496
I3000
I0
I286867456
I0
I0
I0
VDSC_0195.JPG
p1530
V20190407T133818
p1531
V20190407T133818
p1532
ttRp1533
ag1
(g5
g3
(I65537
I12288
I0
I27765438
I14344
I8735
I160
I120
I6000
I4000
I0
I286867456
I0
I0
I0
VDSC_0195.NEF
p1534
V20190407T133818
p1535
V20190407T133818
p1536
ttRp1537
ag1
(g5
g3
(I65537
I14337
I0
I2915405
I14344
I12422
I160
I120
I4496
I3000
I0
I286867456
I0
I0
I0
VDSC_0196.JPG
p1538
V20190407T133926
p1539
V20190407T133926
p1540
ttRp1541
ag1
(g5
g3
(I65537
I12288
I0
I22618168
I14344
I8584
I160
I120
I6000
I4000
I0
I286867456
I0
I0
I0
VDSC_0196.NEF
p1542
V20190407T133926
p1543
V20190407T133926
p1544
ttRp1545
ag1
(g5
g3
(I65537
I14337
I0
I2915016
I14344
I9030
I160
I120
I4496
I3000
I0
I286867456
I0
I0
I0
VDSC_0197.JPG
p1546
V20190407T133936
p1547
V20190407T133936
p1548
ttRp1549
ag1
(g5
g3
(I65537
I12288
I0
I22684344
I14344
I8729
I160
I120
I6000
I4000
I0
I286867456
I0
I0
I0
VDSC_0197.NEF
p1550
V20190407T133936
p1551
V20190407T133936
p1552
ttRp1553
ag1
(g5
g3
(I65537
I14337
I0
I4182228
I14344
I8669
I160
I120
I4496
I3000
I0
I286867456
I0
I0
I0
VDSC_0198.JPG
p1554
V20190407T134118
p1555
V20190407T134118
p1556
ttRp1557
ag1
(g5
g3
(I65537
I12288
I0
I24996272
I14344
I8633
I160
I120
I6000
I4000
I0
I286867456
I0
I0
I0
VDSC_0198.NEF
p1558
V20190407T134118
p1559
V20190407T134118
p1560
ttRp1561
ag1
(g5
g3
(I65537
I14337
I0
I3710824
I14344
I8702
I160
I120
I4496
I3000
I0
I286867456
I0
I0
I0
VDSC_0199.JPG
p1562
V20190407T134130
p1563
V20190407T134130
p1564
ttRp1565
ag1
(g5
g3
(I65537
I12288
I0
I24248538
I14344
I8686
I160
I120
I6000
I4000
I0
I286867456
I0
I0
I0
VDSC_0199.NEF
p1566
V20190407T134130
p1567
V20190407T134130
p1568
ttRp1569
ag1
(g5
g3
(I65537
I14337
I0
I2333576
I14344
I9902
I160
I120
I4496
I3000
I0
I286867456
I0
I0
I0
VDSC_0200.JPG
p1570
V20190407T134836
p1571
V20190407T134836
p1572
ttRp1573
ag1
(g5
g3
(I65537
I12288
I0
I21199617
I14344
I9929
I160
I120
I6000
I4000
I0
I286867456
I0
I0
I0
VDSC_0200.NEF
p1574
V20190407T134836
p1575
V20190407T134836
p1576
ttRp1577
ag1
(g5
g3
(I65537
I14337
I0
I2536738
I14344
I11715
I160
I120
I4496
I3000
I0
I286867456
I0
I0
I0
VDSC_0201.JPG
p1578
V20190407T134844
p1579
V20190407T134844
p1580
ttRp1581
ag1
(g5
g3
(I65537
I12288
I0
I21622032
I14344
I11759
I160
I120
I6000
I4000
I0
I286867456
I0
I0
I0
VDSC_0201.NEF
p1582
V20190407T134844
p1583
V20190407T134844
p1584
ttRp1585
ag1
(g5
g3
(I65537
I14337
I0
I2181401
I14344
I6672
I160
I120
I4496
I3000
I0
I286867456
I0
I0
I0
VDSC_0202.JPG
p1586
V20190407T134904
p1587
V20190407T134904
p1588
ttRp1589
ag1
(g5
g3
(I65537
I12288
I0
I20967605
I14344
I6444
I160
I120
I6000
I4000
I0
I286867456
I0
I0
I0
VDSC_0202.NEF
p1590
V20190407T134904
p1591
V20190407T134904
p1592
ttRp1593
ag1
(g5
g3
(I65537
I14337
I0
I1691595
I14344
I6346
I160
I120
I4496
I3000
I0
I286867456
I0
I0
I0
VDSC_0203.JPG
p1594
V20190407T135004
p1595
V20190407T135004
p1596
ttRp1597
ag1
(g5
g3
(I65537
I12288
I0
I20239569
I14344
I6696
I160
I120
I6000
I4000
I0
I286867456
I0
I0
I0
VDSC_0203.NEF
p1598
V20190407T135004
p1599
V20190407T135004
p1600
ttRp1601
ag1
(g5
g3
(I65537
I14337
I0
I2296002
I14344
I9884
I160
I120
I4496
I3000
I0
I286867456
I0
I0
I0
VDSC_0204.JPG
p1602
V20190407T135012
p1603
V20190407T135012
p1604
ttRp1605
ag1
(g5
g3
(I65537
I12288
I0
I21164329
I14344
I10470
I160
I120
I6000
I4000
I0
I286867456
I0
I0
I0
VDSC_0204.NEF
p1606
V20190407T135012
p1607
V20190407T135012
p1608
ttRp1609
ag1
(g5
g3
(I65537
I14337
I0
I2598514
I14344
I11967
I160
I120
I4496
I3000
I0
I286867456
I0
I0
I0
VDSC_0205.JPG
p1610
V20190407T135018
p1611
V20190407T135018
p1612
ttRp1613
ag1
(g5
g3
(I65537
I12288
I0
I21761471
I14344
I12464
I160
I120
I6000
I4000
I0
I286867456
I0
I0
I0
VDSC_0205.NEF
p1614
V20190407T135020
p1615
V20190407T135020
p1616
ttRp1617
ag1
(g5
g3
(I65537
I14337
I0
I2651862
I14344
I11110
I160
I120
I4496
I3000
I0
I286867456
I0
I0
I0
VDSC_0206.JPG
p1618
V20190407T135118
p1619
V20190407T135118
p1620
ttRp1621
ag1
(g5
g3
(I65537
I12288
I0
I21981209
I14344
I11374
I160
I120
I6000
I4000
I0
I286867456
I0
I0
I0
VDSC_0206.NEF
p1622
V20190407T135118
p1623
V20190407T135118
p1624
ttRp1625
ag1
(g5
g3
(I65537
I14337
I0
I2755279
I14344
I10770
I160
I120
I4496
I3000
I0
I286867456
I0
I0
I0
VDSC_0207.JPG
p1626
V20190407T135212
p1627
V20190407T135212
p1628
ttRp1629
ag1
(g5
g3
(I65537
I12288
I0
I21747695
I14344
I11132
I160
I120
I6000
I4000
I0
I286867456
I0
I0
I0
VDSC_0207.NEF
p1630
V20190407T135212
p1631
V20190407T135212
p1632
ttRp1633
ag1
(g5
g3
(I65537
I14337
I0
I3367883
I14344
I8372
I160
I120
I4496
I3000
I0
I286867456
I0
I0
I0
VDSC_0208.JPG
p1634
V20190407T135222
p1635
V20190407T135222
p1636
ttRp1637
ag1
(g5
g3
(I65537
I12288
I0
I22905844
I14344
I8284
I160
I120
I6000
I4000
I0
I286867456
I0
I0
I0
VDSC_0208.NEF
p1638
V20190407T135222
p1639
V20190407T135222
p1640
ttRp1641
ag1
(g5
g3
(I65537
I14337
I0
I3176375
I14344
I8915
I160
I120
I4496
I3000
I0
I286867456
I0
I0
I0
VDSC_0209.JPG
p1642
V20190407T140206
p1643
V20190407T140206
p1644
ttRp1645
ag1
(g5
g3
(I65537
I12288
I0
I23697818
I14344
I8825
I160
I120
I6000
I4000
I0
I286867456
I0
I0
I0
VDSC_0209.NEF
p1646
V20190407T140206
p1647
V20190407T140206
p1648
ttRp1649
ag1
(g5
g3
(I65537
I14337
I0
I3376455
I14344
I8887
I160
I120
I4496
I3000
I0
I286867456
I0
I0
I0
VDSC_0210.JPG
p1650
V20190407T140220
p1651
V20190407T140220
p1652
ttRp1653
ag1
(g5
g3
(I65537
I12288
I0
I23620464
I14344
I8901
I160
I120
I6000
I4000
I0
I286867456
I0
I0
I0
VDSC_0210.NEF
p1654
V20190407T140220
p1655
V20190407T140220
p1656
ttRp1657
ag1
(g5
g3
(I65537
I14337
I0
I4086426
I14344
I8057
I160
I120
I4496
I3000
I0
I286867456
I0
I0
I0
VDSC_0211.JPG
p1658
V20190407T140428
p1659
V20190407T140428
p1660
ttRp1661
ag1
(g5
g3
(I65537
I12288
I0
I30230865
I14344
I8064
I160
I120
I6000
I4000
I0
I286867456
I0
I0
I0
VDSC_0211.NEF
p1662
V20190407T140430
p1663
V20190407T140430
p1664
ttRp1665
ag1
(g5
g3
(I65537
I14337
I0
I4119733
I14344
I8221
I160
I120
I4496
I3000
I0
I286867456
I0
I0
I0
VDSC_0212.JPG
p1666
V20190407T140434
p1667
V20190407T140434
p1668
ttRp1669
ag1
(g5
g3
(I65537
I12288
I0
I30027128
I14344
I8231
I160
I120
I6000
I4000
I0
I286867456
I0
I0
I0
VDSC_0212.NEF
p1670
V20190407T140434
p1671
V20190407T140434
p1672
ttRp1673
ag1
(g5
g3
(I65537
I14337
I0
I4065261
I14344
I8616
I160
I120
I4496
I3000
I0
I286867456
I0
I0
I0
VDSC_0213.JPG
p1674
V20190407T140446
p1675
V20190407T140446
p1676
ttRp1677
ag1
(g5
g3
(I65537
I12288
I0
I27652969
I14344
I8593
I160
I120
I6000
I4000
I0
I286867456
I0
I0
I0
VDSC_0213.NEF
p1678
V20190407T140446
p1679
V20190407T140446
p1680
ttRp1681
ag1
(g5
g3
(I65537
I14337
I0
I3761057
I14344
I8411
I160
I120
I4496
I3000
I0
I286867456
I0
I0
I0
VDSC_0214.JPG
p1682
V20190407T140626
p1683
V20190407T140626
p1684
ttRp1685
ag1
(g5
g3
(I65537
I12288
I0
I23837523
I14344
I8255
I160
I120
I6000
I4000
I0
I286867456
I0
I0
I0
VDSC_0214.NEF
p1686
V20190407T140626
p1687
V20190407T140626
p1688
ttRp1689
ag1
(g5
g3
(I65537
I14337
I0
I3951183
I14344
I8662
I160
I120
I4496
I3000
I0
I286867456
I0
I0
I0
VDSC_0215.JPG
p1690
V20190407T140708
p1691
V20190407T140708
p1692
ttRp1693
ag1
(g5
g3
(I65537
I12288
I0
I24226693
I14344
I8420
I160
I120
I6000
I4000
I0
I286867456
I0
I0
I0
VDSC_0215.NEF
p1694
V20190407T140708
p1695
V20190407T140708
p1696
ttRp1697
ag1
(g5
g3
(I65537
I14337
I0
I3763975
I14344
I8480
I160
I120
I4496
I3000
I0
I286867456
I0
I0
I0
VDSC_0216.JPG
p1698
V20190407T140724
p1699
V20190407T140724
p1700
ttRp1701
ag1
(g5
g3
(I65537
I12288
I0
I24042375
I14344
I8454
I160
I120
I6000
I4000
I0
I286867456
I0
I0
I0
VDSC_0216.NEF
p1702
V20190407T140724
p1703
V20190407T140724
p1704
ttRp1705
ag1
(g5
g3
(I65537
I14337
I0
I2122798
I14344
I9439
I160
I120
I4496
I3000
I0
I286867456
I0
I0
I0
VDSC_0217.JPG
p1706
V20190407T140800
p1707
V20190407T140800
p1708
ttRp1709
ag1
(g5
g3
(I65537
I12288
I0
I20880834
I14344
I9367
I160
I120
I6000
I4000
I0
I286867456
I0
I0
I0
VDSC_0217.NEF
p1710
V20190407T140800
p1711
V20190407T140800
p1712
ttRp1713
ag1
(g5
g3
(I65537
I14337
I0
I2241113
I14344
I8936
I160
I120
I4496
I3000
I0
I286867456
I0
I0
I0
VDSC_0218.JPG
p1714
V20190407T140816
p1715
V20190407T140816
p1716
ttRp1717
ag1
(g5
g3
(I65537
I12288
I0
I21127293
I14344
I8893
I160
I120
I6000
I4000
I0
I286867456
I0
I0
I0
VDSC_0218.NEF
p1718
V20190407T140816
p1719
V20190407T140816
p1720
ttRp1721
ag1
(g5
g3
(I65537
I14337
I0
I2414834
I14344
I10087
I160
I120
I4496
I3000
I0
I286867456
I0
I0
I0
VDSC_0219.JPG
p1722
V20190407T140822
p1723
V20190407T140822
p1724
ttRp1725
ag1
(g5
g3
(I65537
I12288
I0
I21671806
I14344
I10437
I160
I120
I6000
I4000
I0
I286867456
I0
I0
I0
VDSC_0219.NEF
p1726
V20190407T140822
p1727
V20190407T140822
p1728
ttRp1729
ag1
(g5
g3
(I65537
I14337
I0
I2824246
I14344
I8526
I160
I120
I4496
I3000
I0
I286867456
I0
I0
I0
VDSC_0220.JPG
p1730
V20190407T140838
p1731
V20190407T140838
p1732
ttRp1733
ag1
(g5
g3
(I65537
I12288
I0
I22136491
I14344
I8400
I160
I120
I6000
I4000
I0
I286867456
I0
I0
I0
VDSC_0220.NEF
p1734
V20190407T140838
p1735
V20190407T140838
p1736
ttRp1737
ag1
(g5
g3
(I65537
I14337
I0
I2857350
I14344
I8642
I160
I120
I4496
I3000
I0
I286867456
I0
I0
I0
VDSC_0221.JPG
p1738
V20190407T140844
p1739
V20190407T140844
p1740
ttRp1741
ag1
(g5
g3
(I65537
I12288
I0
I22327047
I14344
I8585
I160
I120
I6000
I4000
I0
I286867456
I0
I0
I0
VDSC_0221.NEF
p1742
V20190407T140844
p1743
V20190407T140844
p1744
ttRp1745
ag1
(g5
g3
(I65537
I14337
I0
I2922131
I14344
I8636
I160
I120
I4496
I3000
I0
I286867456
I0
I0
I0
VDSC_0222.JPG
p1746
V20190407T140856
p1747
V20190407T140856
p1748
ttRp1749
ag1
(g5
g3
(I65537
I12288
I0
I22480855
I14344
I8424
I160
I120
I6000
I4000
I0
I286867456
I0
I0
I0
VDSC_0222.NEF
p1750
V20190407T140856
p1751
V20190407T140856
p1752
ttRp1753
ag1
(g5
g3
(I65537
I14337
I0
I2949355
I14344
I8754
I160
I120
I4496
I3000
I0
I286867456
I0
I0
I0
VDSC_0223.JPG
p1754
V20190407T140902
p1755
V20190407T140902
p1756
ttRp1757
ag1
(g5
g3
(I65537
I12288
I0
I22451850
I14344
I8766
I160
I120
I6000
I4000
I0
I286867456
I0
I0
I0
VDSC_0223.NEF
p1758
V20190407T140902
p1759
V20190407T140902
p1760
ttRp1761
ag1
(g5
g3
(I65537
I14337
I0
I2751322
I14344
I10822
I160
I120
I4496
I3000
I0
I286867456
I0
I0
I0
VDSC_0224.JPG
p1762
V20190407T140954
p1763
V20190407T140954
p1764
ttRp1765
ag1
(g5
g3
(I65537
I12288
I0
I22108740
I14344
I11032
I160
I120
I6000
I4000
I0
I286867456
I0
I0
I0
VDSC_0224.NEF
p1766
V20190407T140954
p1767
V20190407T140954
p1768
ttRp1769
ag1
(g5
g3
(I65537
I14337
I0
I3113598
I14344
I8166
I160
I120
I4496
I3000
I0
I286867456
I0
I0
I0
VDSC_0225.JPG
p1770
V20190407T141636
p1771
V20190407T141636
p1772
ttRp1773
ag1
(g5
g3
(I65537
I12288
I0
I22333373
I14344
I8055
I160
I120
I6000
I4000
I0
I286867456
I0
I0
I0
VDSC_0225.NEF
p1774
V20190407T141638
p1775
V20190407T141638
p1776
ttRp1777
ag1
(g5
g3
(I65537
I14337
I0
I3438518
I14344
I8331
I160
I120
I4496
I3000
I0
I286867456
I0
I0
I0
VDSC_0226.JPG
p1778
V20190407T141644
p1779
V20190407T141644
p1780
ttRp1781
ag1
(g5
g3
(I65537
I12288
I0
I22883053
I14344
I8283
I160
I120
I6000
I4000
I0
I286867456
I0
I0
I0
VDSC_0226.NEF
p1782
V20190407T141644
p1783
V20190407T141644
p1784
ttRp1785
ag1
(g5
g3
(I65537
I14337
I0
I3446820
I14344
I8494
I160
I120
I4496
I3000
I0
I286867456
I0
I0
I0
VDSC_0227.JPG
p1786
V20190407T141650
p1787
V20190407T141650
p1788
ttRp1789
ag1
(g5
g3
(I65537
I12288
I0
I23179976
I14344
I8310
I160
I120
I6000
I4000
I0
I286867456
I0
I0
I0
VDSC_0227.NEF
p1790
V20190407T141650
p1791
V20190407T141650
p1792
ttRp1793
ag1
(g5
g3
(I65537
I14337
I0
I3374244
I14344
I8282
I160
I120
I4496
I3000
I0
I286867456
I0
I0
I0
VDSC_0228.JPG
p1794
V20190407T141702
p1795
V20190407T141702
p1796
ttRp1797
ag1
(g5
g3
(I65537
I12288
I0
I22923241
I14344
I8153
I160
I120
I6000
I4000
I0
I286867456
I0
I0
I0
VDSC_0228.NEF
p1798
V20190407T141702
p1799
V20190407T141702
p1800
ttRp1801
ag1
(g5
g3
(I65537
I14337
I0
I3360756
I14344
I8404
I160
I120
I4496
I3000
I0
I286867456
I0
I0
I0
VDSC_0229.JPG
p1802
V20190407T141716
p1803
V20190407T141716
p1804
ttRp1805
ag1
(g5
g3
(I65537
I12288
I0
I22918895
I14344
I8300
I160
I120
I6000
I4000
I0
I286867456
I0
I0
I0
VDSC_0229.NEF
p1806
V20190407T141716
p1807
V20190407T141716
p1808
ttRp1809
ag1
(g5
g3
(I65537
I14337
I0
I3396599
I14344
I8422
I160
I120
I4496
I3000
I0
I286867456
I0
I0
I0
VDSC_0230.JPG
p1810
V20190407T141728
p1811
V20190407T141728
p1812
ttRp1813
ag1
(g5
g3
(I65537
I12288
I0
I22921971
I14344
I8088
I160
I120
I6000
I4000
I0
I286867456
I0
I0
I0
VDSC_0230.NEF
p1814
V20190407T141730
p1815
V20190407T141730
p1816
ttRp1817
ag1
(g5
g3
(I65537
I14337
I0
I3409834
I14344
I8382
I160
I120
I4496
I3000
I0
I286867456
I0
I0
I0
VDSC_0231.JPG
p1818
V20190407T141732
p1819
V20190407T141732
p1820
ttRp1821
ag1
(g5
g3
(I65537
I12288
I0
I23033152
I14344
I8288
I160
I120
I6000
I4000
I0
I286867456
I0
I0
I0
VDSC_0231.NEF
p1822
V20190407T141732
p1823
V20190407T141732
p1824
ttRp1825
ag1
(g5
g3
(I65537
I14337
I0
I3681918
I14344
I8429
I160
I120
I4496
I3000
I0
I286867456
I0
I0
I0
VDSC_0232.JPG
p1826
V20190407T141740
p1827
V20190407T141740
p1828
ttRp1829
ag1
(g5
g3
(I65537
I12288
I0
I23594948
I14344
I8363
I160
I120
I6000
I4000
I0
I286867456
I0
I0
I0
VDSC_0232.NEF
p1830
V20190407T141740
p1831
V20190407T141740
p1832
ttRp1833
ag1
(g5
g3
(I65537
I14337
I0
I3748323
I14344
I8692
I160
I120
I4496
I3000
I0
I286867456
I0
I0
I0
VDSC_0233.JPG
p1834
V20190407T141752
p1835
V20190407T141752
p1836
ttRp1837
ag1
(g5
g3
(I65537
I12288
I0
I24228655
I14344
I8624
I160
I120
I6000
I4000
I0
I286867456
I0
I0
I0
VDSC_0233.NEF
p1838
V20190407T141752
p1839
V20190407T141752
p1840
ttRp1841
ag1
(g5
g3
(I65537
I14337
I0
I3558230
I14344
I8629
I160
I120
I4496
I3000
I0
I286867456
I0
I0
I0
VDSC_0234.JPG
p1842
V20190407T141802
p1843
V20190407T141802
p1844
ttRp1845
ag1
(g5
g3
(I65537
I12288
I0
I23427270
I14344
I8425
I160
I120
I6000
I4000
I0
I286867456
I0
I0
I0
VDSC_0234.NEF
p1846
V20190407T141802
p1847
V20190407T141802
p1848
ttRp1849
ag1
(g5
g3
(I65537
I14337
I0
I3732930
I14344
I8552
I160
I120
I4496
I3000
I0
I286867456
I0
I0
I0
VDSC_0235.JPG
p1850
V20190407T141946
p1851
V20190407T141946
p1852
ttRp1853
ag1
(g5
g3
(I65537
I12288
I0
I23796728
I14344
I8556
I160
I120
I6000
I4000
I0
I286867456
I0
I0
I0
VDSC_0235.NEF
p1854
V20190407T141946
p1855
V20190407T141946
p1856
ttRp1857
ag1
(g5
g3
(I65537
I14337
I0
I3922117
I14344
I8592
I160
I120
I4496
I3000
I0
I286867456
I0
I0
I0
VDSC_0236.JPG
p1858
V20190407T141954
p1859
V20190407T141954
p1860
ttRp1861
ag1
(g5
g3
(I65537
I12288
I0
I24530881
I14344
I8550
I160
I120
I6000
I4000
I0
I286867456
I0
I0
I0
VDSC_0236.NEF
p1862
V20190407T141954
p1863
V20190407T141954
p1864
ttRp1865
ag1
(g5
g3
(I65537
I14337
I0
I4045372
I14344
I8524
I160
I120
I4496
I3000
I0
I286867456
I0
I0
I0
VDSC_0237.JPG
p1866
V20190407T142002
p1867
V20190407T142002
p1868
ttRp1869
ag1
(g5
g3
(I65537
I12288
I0
I24796130
I14344
I8527
I160
I120
I6000
I4000
I0
I286867456
I0
I0
I0
VDSC_0237.NEF
p1870
V20190407T142002
p1871
V20190407T142002
p1872
ttRp1873
ag1
(g5
g3
(I65537
I14337
I0
I3876520
I14344
I8626
I160
I120
I4496
I3000
I0
I286867456
I0
I0
I0
VDSC_0238.JPG
p1874
V20190407T142036
p1875
V20190407T142036
p1876
ttRp1877
ag1
(g5
g3
(I65537
I12288
I0
I24468480
I14344
I8614
I160
I120
I6000
I4000
I0
I286867456
I0
I0
I0
VDSC_0238.NEF
p1878
V20190407T142036
p1879
V20190407T142036
p1880
ttRp1881
ag1
(g5
g3
(I65537
I14337
I0
I3857431
I14344
I8679
I160
I120
I4496
I3000
I0
I286867456
I0
I0
I0
VDSC_0239.JPG
p1882
V20190407T142040
p1883
V20190407T142040
p1884
ttRp1885
ag1
(g5
g3
(I65537
I12288
I0
I24716069
I14344
I8639
I160
I120
I6000
I4000
I0
I286867456
I0
I0
I0
VDSC_0239.NEF
p1886
V20190407T142040
p1887
V20190407T142040
p1888
ttRp1889
ag1
(g5
g3
(I65537
I14337
I0
I3746196
I14344
I8658
I160
I120
I4496
I3000
I0
I286867456
I0
I0
I0
VDSC_0240.JPG
p1890
V20190407T142048
p1891
V20190407T142048
p1892
ttRp1893
ag1
(g5
g3
(I65537
I12288
I0
I24624765
I14344
I8668
I160
I120
I6000
I4000
I0
I286867456
I0
I0
I0
VDSC_0240.NEF
p1894
V20190407T142048
p1895
V20190407T142048
p1896
ttRp1897
ag1
(g5
g3
(I65537
I14337
I0
I3784911
I14344
I8766
I160
I120
I4496
I3000
I0
I286867456
I0
I0
I0
VDSC_0241.JPG
p1898
V20190407T142104
p1899
V20190407T142104
p1900
ttRp1901
ag1
(g5
g3
(I65537
I12288
I0
I24744353
I14344
I8751
I160
I120
I6000
I4000
I0
I286867456
I0
I0
I0
VDSC_0241.NEF
p1902
V20190407T142104
p1903
V20190407T142104
p1904
ttRp1905
ag1
(g5
g3
(I65537
I14337
I0
I3644163
I14344
I8929
I160
I120
I4496
I3000
I0
I286867456
I0
I0
I0
VDSC_0242.JPG
p1906
V20190407T142114
p1907
V20190407T142114
p1908
ttRp1909
ag1
(g5
g3
(I65537
I12288
I0
I24776948
I14344
I8898
I160
I120
I6000
I4000
I0
I286867456
I0
I0
I0
VDSC_0242.NEF
p1910
V20190407T142114
p1911
V20190407T142114
p1912
ttRp1913
ag1
(g5
g3
(I65537
I14337
I0
I3825142
I14344
I8671
I160
I120
I4496
I3000
I0
I286867456
I0
I0
I0
VDSC_0243.JPG
p1914
V20190407T142126
p1915
V20190407T142126
p1916
ttRp1917
ag1
(g5
g3
(I65537
I12288
I0
I25336455
I14344
I8658
I160
I120
I6000
I4000
I0
I286867456
I0
I0
I0
VDSC_0243.NEF
p1918
V20190407T142126
p1919
V20190407T142126
p1920
ttRp1921
ag1
(g5
g3
(I65537
I14337
I0
I3691478
I14344
I8777
I160
I120
I4496
I3000
I0
I286867456
I0
I0
I0
VDSC_0244.JPG
p1922
V20190407T142144
p1923
V20190407T142144
p1924
ttRp1925
ag1
(g5
g3
(I65537
I12288
I0
I23865941
I14344
I8618
I160
I120
I6000
I4000
I0
I286867456
I0
I0
I0
VDSC_0244.NEF
p1926
V20190407T142144
p1927
V20190407T142144
p1928
ttRp1929
ag1
(g5
g3
(I65537
I14337
I0
I3639527
I14344
I8777
I160
I120
I4496
I3000
I0
I286867456
I0
I0
I0
VDSC_0245.JPG
p1930
V20190407T142154
p1931
V20190407T142154
p1932
ttRp1933
ag1
(g5
g3
(I65537
I12288
I0
I24210614
I14344
I8783
I160
I120
I6000
I4000
I0
I286867456
I0
I0
I0
VDSC_0245.NEF
p1934
V20190407T142154
p1935
V20190407T142154
p1936
ttRp1937
ag1
(g5
g3
(I65537
I14337
I0
I3679152
I14344
I8427
I160
I120
I4496
I3000
I0
I286867456
I0
I0
I0
VDSC_0246.JPG
p1938
V20190407T142218
p1939
V20190407T142218
p1940
ttRp1941
ag1
(g5
g3
(I65537
I12288
I0
I23989211
I14344
I8432
I160
I120
I6000
I4000
I0
I286867456
I0
I0
I0
VDSC_0246.NEF
p1942
V20190407T142218
p1943
V20190407T142218
p1944
ttRp1945
ag1
(g5
g3
(I65537
I14337
I0
I3702734
I14344
I8636
I160
I120
I4496
I3000
I0
I286867456
I0
I0
I0
VDSC_0247.JPG
p1946
V20190407T142222
p1947
V20190407T142222
p1948
ttRp1949
ag1
(g5
g3
(I65537
I12288
I0
I24145839
I14344
I8601
I160
I120
I6000
I4000
I0
I286867456
I0
I0
I0
VDSC_0247.NEF
p1950
V20190407T142222
p1951
V20190407T142222
p1952
ttRp1953
ag1
(g5
g3
(I65537
I14337
I0
I3914336
I14344
I8448
I160
I120
I4496
I3000
I0
I286867456
I0
I0
I0
VDSC_0248.JPG
p1954
V20190407T142232
p1955
V20190407T142232
p1956
ttRp1957
ag1
(g5
g3
(I65537
I12288
I0
I24281104
I14344
I8462
I160
I120
I6000
I4000
I0
I286867456
I0
I0
I0
VDSC_0248.NEF
p1958
V20190407T142232
p1959
V20190407T142232
p1960
ttRp1961
ag1
(g5
g3
(I65537
I14337
I0
I4041740
I14344
I8646
I160
I120
I4496
I3000
I0
I286867456
I0
I0
I0
VDSC_0249.JPG
p1962
V20190407T142252
p1963
V20190407T142252
p1964
ttRp1965
ag1
(g5
g3
(I65537
I12288
I0
I25477383
I14344
I8624
I160
I120
I6000
I4000
I0
I286867456
I0
I0
I0
VDSC_0249.NEF
p1966
V20190407T142252
p1967
V20190407T142252
p1968
ttRp1969
ag1
(g5
g3
(I65537
I14337
I0
I4291361
I14344
I8778
I160
I120
I4496
I3000
I0
I286867456
I0
I0
I0
VDSC_0250.JPG
p1970
V20190407T142256
p1971
V20190407T142256
p1972
ttRp1973
ag1
(g5
g3
(I65537
I12288
I0
I26264286
I14344
I8695
I160
I120
I6000
I4000
I0
I286867456
I0
I0
I0
VDSC_0250.NEF
p1974
V20190407T142256
p1975
V20190407T142256
p1976
ttRp1977
ag1
(g5
g3
(I65537
I14337
I0
I3749990
I14344
I8589
I160
I120
I4496
I3000
I0
I286867456
I0
I0
I0
VDSC_0251.JPG
p1978
V20190407T142304
p1979
V20190407T142304
p1980
ttRp1981
ag1
(g5
g3
(I65537
I12288
I0
I24121014
I14344
I8426
I160
I120
I6000
I4000
I0
I286867456
I0
I0
I0
VDSC_0251.NEF
p1982
V20190407T142304
p1983
V20190407T142304
p1984
ttRp1985
ag1
(g5
g3
(I65537
I14337
I0
I3893479
I14344
I8588
I160
I120
I4496
I3000
I0
I286867456
I0
I0
I0
VDSC_0252.JPG
p1986
V20190407T142314
p1987
V20190407T142314
p1988
ttRp1989
ag1
(g5
g3
(I65537
I12288
I0
I24893271
I14344
I8562
I160
I120
I6000
I4000
I0
I286867456
I0
I0
I0
VDSC_0252.NEF
p1990
V20190407T142314
p1991
V20190407T142314
p1992
ttRp1993
ag1
(g5
g3
(I65537
I14337
I0
I3699105
I14344
I8632
I160
I120
I4496
I3000
I0
I286867456
I0
I0
I0
VDSC_0253.JPG
p1994
V20190407T142320
p1995
V20190407T142320
p1996
ttRp1997
ag1
(g5
g3
(I65537
I12288
I0
I24357272
I14344
I8612
I160
I120
I6000
I4000
I0
I286867456
I0
I0
I0
VDSC_0253.NEF
p1998
V20190407T142320
p1999
V20190407T142320
p2000
ttRp2001
ag1
(g5
g3
(I65537
I14337
I0
I3869562
I14344
I9183
I160
I120
I4496
I3000
I0
I286867456
I0
I0
I0
VDSC_0254.JPG
p2002
V20190407T142348
p2003
V20190407T142348
p2004
ttRp2005
ag1
(g5
g3
(I65537
I12288
I0
I26110950
I14344
I9179
I160
I120
I6000
I4000
I0
I286867456
I0
I0
I0
VDSC_0254.NEF
p2006
V20190407T142350
p2007
V20190407T142350
p2008
ttRp2009
ag1
(g5
g3
(I65537
I14337
I0
I4154972
I14344
I8845
I160
I120
I4496
I3000
I0
I286867456
I0
I0
I0
VDSC_0255.JPG
p2010
V20190407T142404
p2011
V20190407T142404
p2012
ttRp2013
ag1
(g5
g3
(I65537
I12288
I0
I27985592
I14344
I8856
I160
I120
I6000
I4000
I0
I286867456
I0
I0
I0
VDSC_0255.NEF
p2014
V20190407T142404
p2015
V20190407T142404
p2016
ttRp2017
ag1
(g5
g3
(I65537
I14337
I0
I4066188
I14344
I8678
I160
I120
I4496
I3000
I0
I286867456
I0
I0
I0
VDSC_0256.JPG
p2018
V20190407T142928
p2019
V20190407T142928
p2020
ttRp2021
ag1
(g5
g3
(I65537
I12288
I0
I27256772
I14344
I8662
I160
I120
I6000
I4000
I0
I286867456
I0
I0
I0
VDSC_0256.NEF
p2022
V20190407T142930
p2023
V20190407T142930
p2024
ttRp2025
ag1
(g5
g3
(I65537
I14337
I0
I4044074
I14344
I8613
I160
I120
I4496
I3000
I0
I286867456
I0
I0
I0
VDSC_0257.JPG
p2026
V20190407T143012
p2027
V20190407T143012
p2028
ttRp2029
ag1
(g5
g3
(I65537
I12288
I0
I27312393
I14344
I8596
I160
I120
I6000
I4000
I0
I286867456
I0
I0
I0
VDSC_0257.NEF
p2030
V20190407T143012
p2031
V20190407T143012
p2032
ttRp2033
ag1
(g5
g3
(I65537
I14337
I0
I4044264
I14344
I8684
I160
I120
I4496
I3000
I0
I286867456
I0
I0
I0
VDSC_0258.JPG
p2034
V20190407T143240
p2035
V20190407T143240
p2036
ttRp2037
ag1
(g5
g3
(I65537
I12288
I0
I26987653
I14344
I8684
I160
I120
I6000
I4000
I0
I286867456
I0
I0
I0
VDSC_0258.NEF
p2038
V20190407T143240
p2039
V20190407T143240
p2040
ttRp2041
ag1
(g5
g3
(I65537
I14337
I0
I563840
I14344
I10772
I160
I120
I2992
I2000
I0
I286851072
I0
I0
I0
VDSC_0001.JPG
p2042
V20190419T141104
p2043
V20190419T141104
p2044
ttRp2045
ag1
(g5
g3
(I65537
I14337
I0
I546597
I14344
I10505
I160
I120
I2992
I2000
I0
I286851072
I0
I0
I0
VDSC_0002.JPG
p2046
V20190419T141324
p2047
V20190419T141324
p2048
ttRp2049
ag1
(g5
g3
(I65537
I14337
I0
I565637
I14344
I10527
I160
I120
I2992
I2000
I0
I286851072
I0
I0
I0
VDSC_0003.JPG
p2050
V20190419T141330
p2051
V20190419T141330
p2052
ttRp2053
ag1
(g5
g3
(I65537
I14337
I0
I608649
I14344
I10534
I160
I120
I2992
I2000
I0
I286851072
I0
I0
I0
VDSC_0004.JPG
p2054
V20190419T141334
p2055
V20190419T141334
p2056
ttRp2057
ag1
(g5
g3
(I65537
I14337
I0
I624642
I14344
I10594
I160
I120
I2992
I2000
I0
I286851072
I0
I0
I0
VDSC_0005.JPG
p2058
V20190419T141336
p2059
V20190419T141336
p2060
ttRp2061
ag1
(g5
g3
(I65537
I14337
I0
I633219
I14344
I10529
I160
I120
I2992
I2000
I0
I286851072
I0
I0
I0
VDSC_0006.JPG
p2062
V20190419T141338
p2063
V20190419T141338
p2064
ttRp2065
ag1
(g5
g3
(I65537
I14337
I0
I609336
I14344
I10638
I160
I120
I2992
I2000
I0
I286851072
I0
I0
I0
VDSC_0007.JPG
p2066
V20190419T141344
p2067
V20190419T141344
p2068
ttRp2069
ag1
(g5
g3
(I65537
I14337
I0
I628350
I14344
I10486
I160
I120
I2992
I2000
I0
I286851072
I0
I0
I0
VDSC_0008.JPG
p2070
V20190419T141346
p2071
V20190419T141346
p2072
ttRp2073
ag1
(g5
g3
(I65537
I14337
I0
I604477
I14344
I10574
I160
I120
I2992
I2000
I0
I286851072
I0
I0
I0
VDSC_0009.JPG
p2074
V20190419T141348
p2075
V20190419T141348
p2076
ttRp2077
ag1
(g5
g3
(I65537
I14337
I0
I597849
I14344
I10692
I160
I120
I2992
I2000
I0
I286851072
I0
I0
I0
VDSC_0010.JPG
p2078
V20190419T141350
p2079
V20190419T141350
p2080
ttRp2081
ag1
(g5
g3
(I65537
I14337
I0
I632549
I14344
I10638
I160
I120
I2992
I2000
I0
I286851072
I0
I0
I0
VDSC_0011.JPG
p2082
V20190419T141350
p2083
V20190419T141350
p2084
ttRp2085
ag1
(g5
g3
(I65537
I14337
I0
I641790
I14344
I10201
I160
I120
I2992
I2000
I0
I286851072
I0
I0
I0
VDSC_0012.JPG
p2086
V20190419T141352
p2087
V20190419T141352
p2088
ttRp2089
ag1
(g5
g3
(I65537
I14337
I0
I627698
I14344
I10608
I160
I120
I2992
I2000
I0
I286851072
I0
I0
I0
VDSC_0013.JPG
p2090
V20190419T141354
p2091
V20190419T141354
p2092
ttRp2093
ag1
(g5
g3
(I65537
I14337
I0
I628616
I14344
I10382
I160
I120
I2992
I2000
I0
I286851072
I0
I0
I0
VDSC_0014.JPG
p2094
V20190419T141356
p2095
V20190419T141356
p2096
ttRp2097
ag1
(g5
g3
(I65537
I14337
I0
I623631
I14344
I10316
I160
I120
I2992
I2000
I0
I286851072
I0
I0
I0
VDSC_0015.JPG
p2098
V20190419T141356
p2099
V20190419T141356
p2100
ttRp2101
ag1
(g5
g3
(I65537
I14337
I0
I601266
I14344
I10307
I160
I120
I2992
I2000
I0
I286851072
I0
I0
I0
VDSC_0016.JPG
p2102
V20190419T141358
p2103
V20190419T141358
p2104
ttRp2105
ag1
(g5
g3
(I65537
I14337
I0
I565800
I14344
I10532
I160
I120
I2992
I2000
I0
I286851072
I0
I0
I0
VDSC_0017.JPG
p2106
V20190419T141404
p2107
V20190419T141404
p2108
ttRp2109
ag1
(g5
g3
(I65537
I14337
I0
I568156
I14344
I10694
I160
I120
I2992
I2000
I0
I286851072
I0
I0
I0
VDSC_0018.JPG
p2110
V20190419T141416
p2111
V20190419T141416
p2112
ttRp2113
ag1
(g5
g3
(I65537
I14337
I0
I565919
I14344
I10548
I160
I120
I2992
I2000
I0
I286851072
I0
I0
I0
VDSC_0019.JPG
p2114
V20190419T141420
p2115
V20190419T141420
p2116
ttRp2117
ag1
(g5
g3
(I65537
I14337
I0
I562748
I14344
I10422
I160
I120
I2992
I2000
I0
I286851072
I0
I0
I0
VDSC_0020.JPG
p2118
V20190419T141422
p2119
V20190419T141422
p2120
ttRp2121
ag1
(g5
g3
(I65537
I14337
I0
I837430
I14344
I7712
I160
I120
I2992
I2000
I0
I286851072
I0
I0
I0
VDSC_0021.JPG
p2122
V20190419T141458
p2123
V20190419T141458
p2124
ttRp2125
ag1
(g5
g3
(I65537
I14337
I0
I763301
I14344
I10124
I160
I120
I2992
I2000
I0
I286851072
I0
I0
I0
VDSC_0022.JPG
p2126
V20190419T141504
p2127
V20190419T141504
p2128
ttRp2129
ag1
(g5
g3
(I65537
I14337
I0
I747140
I14344
I10131
I160
I120
I2992
I2000
I0
I286851072
I0
I0
I0
VDSC_0023.JPG
p2130
V20190419T141506
p2131
V20190419T141506
p2132
ttRp2133
ag1
(g5
g3
(I65537
I14337
I0
I756631
I14344
I7708
I160
I120
I2992
I2000
I0
I286851072
I0
I0
I0
VDSC_0024.JPG
p2134
V20190419T141508
p2135
V20190419T141508
p2136
ttRp2137
ag1
(g5
g3
(I65537
I14337
I0
I853644
I14344
I7752
I160
I120
I2992
I2000
I0
I286851072
I0
I0
I0
VDSC_0025.JPG
p2138
V20190419T141508
p2139
V20190419T141508
p2140
ttRp2141
ag1
(g5
g3
(I65537
I14337
I0
I673824
I14344
I10355
I160
I120
I2992
I2000
I0
I286851072
I0
I0
I0
VDSC_0026.JPG
p2142
V20190419T141510
p2143
V20190419T141510
p2144
ttRp2145
ag1
(g5
g3
(I65537
I14337
I0
I644799
I14344
I10343
I160
I120
I2992
I2000
I0
I286851072
I0
I0
I0
VDSC_0027.JPG
p2146
V20190419T141514
p2147
V20190419T141514
p2148
ttRp2149
ag1
(g5
g3
(I65537
I14337
I0
I615541
I14344
I10477
I160
I120
I2992
I2000
I0
I286851072
I0
I0
I0
VDSC_0028.JPG
p2150
V20190419T141516
p2151
V20190419T141516
p2152
ttRp2153
ag1
(g5
g3
(I65537
I14337
I0
I562586
I14344
I10720
I160
I120
I2992
I2000
I0
I286851072
I0
I0
I0
VDSC_0029.JPG
p2154
V20190419T141518
p2155
V20190419T141518
p2156
ttRp2157
ag1
(g5
g3
(I65537
I14337
I0
I555681
I14344
I10524
I160
I120
I2992
I2000
I0
I286851072
I0
I0
I0
VDSC_0030.JPG
p2158
V20190419T141518
p2159
V20190419T141518
p2160
ttRp2161
ag1
(g5
g3
(I65537
I14337
I0
I572759
I14344
I10591
I160
I120
I2992
I2000
I0
I286851072
I0
I0
I0
VDSC_0031.JPG
p2162
V20190419T141518
p2163
V20190419T141518
p2164
ttRp2165
ag1
(g5
g3
(I65537
I14337
I0
I561682
I14344
I10461
I160
I120
I2992
I2000
I0
I286851072
I0
I0
I0
VDSC_0032.JPG
p2166
V20190419T141524
p2167
V20190419T141524
p2168
ttRp2169
a(lp2170
I286851072
aI285229056
aI286867456
aI689520641
aI152649729
aI689520642
aI152649730
aI689520643
aI152649731
aI689520644
aI152649732
aI689520645
aI152649733
aI689520646
aI152649734
aI689520647
aI152649735
aI689520648
aI152649736
aI689520649
aI152649737
aI689520650
aI152649738
aI689520651
aI152649739
aI689520652
aI152649740
aI689520653
aI152649741
aI689520654
aI152649742
aI689520655
aI152649743
aI689520656
aI152649744
aI689520657
aI152649745
aI689520658
aI152649746
aI689520659
aI152649747
aI689520660
aI152649748
aI689520661
aI152649749
aI689520662
aI152649750
aI689520663
aI152649751
aI689520664
aI152649752
aI689520665
aI152649753
aI689520666
aI152649754
aI689520667
aI152649755
aI689520668
aI152649756
aI689520669
aI152649757
aI689520670
aI152649758
aI689520671
aI152649759
aI689520672
aI152649760
aI689520673
aI152649761
aI689520674
aI152649762
aI689520675
aI152649763
aI689520676
aI152649764
aI689520677
aI152649765
aI689520678
aI152649766
aI689520679
aI152649767
aI689520680
aI152649768
aI689520681
aI152649769
aI689520682
aI152649770
aI689520683
aI152649771
aI689520684
aI152649772
aI689520685
aI152649773
aI689520686
aI152649774
aI689520687
aI152649775
aI689520688
aI152649776
aI689520689
aI152649777
aI689520690
aI152649778
aI689520691
aI152649779
aI689520692
aI152649780
aI689520693
aI152649781
aI689520694
aI152649782
aI689520695
aI152649783
aI689520696
aI152649784
aI689520697
aI152649785
aI689520698
aI152649786
aI689520699
aI152649787
aI689520700
aI152649788
aI689520701
aI152649789
aI689520702
aI152649790
aI689520703
aI152649791
aI689520704
aI152649792
aI689520705
aI152649793
aI689520706
aI152649794
aI689520707
aI152649795
aI689520708
aI152649796
aI689520709
aI152649797
aI689520711
aI152649799
aI689520712
aI152649800
aI689520714
aI152649802
aI689520715
aI152649803
aI689520716
aI152649804
aI689520717
aI152649805
aI689520718
aI152649806
aI689520719
aI152649807
aI689520720
aI152649808
aI689520722
aI152649810
aI689520723
aI152649811
aI689520724
aI152649812
aI689520725
aI152649813
aI689520726
aI152649814
aI689520727
aI152649815
aI689520728
aI152649816
aI689520729
aI152649817
aI689520730
aI152649818
aI689520731
aI152649819
aI689520732
aI152649820
aI689520733
aI152649821
aI689520734
aI152649822
aI689520735
aI152649823
aI689520736
aI152649824
aI689520737
aI152649825
aI689520738
aI152649826
aI689520739
aI152649827
aI689520740
aI152649828
aI689520741
aI152649829
aI689520742
aI152649830
aI689520745
aI152649833
aI689520746
aI152649834
aI689520747
aI152649835
aI689520748
aI152649836
aI689520749
aI152649837
aI689520750
aI152649838
aI689520751
aI152649839
aI689520752
aI152649840
aI689520753
aI152649841
aI689520754
aI152649842
aI689520755
aI152649843
aI689520756
aI152649844
aI689520757
aI152649845
aI689520758
aI152649846
aI689520759
aI152649847
aI689520760
aI152649848
aI689520761
aI152649849
aI689520762
aI152649850
aI689520763
aI152649851
aI689520764
aI152649852
aI689520765
aI152649853
aI689520766
aI152649854
aI689520767
aI152649855
aI689520768
aI152649856
aI689520769
aI152649857
aI689520770
aI152649858
aI689520771
aI152649859
aI689520772
aI152649860
aI689520773
aI152649861
aI689520774
aI152649862
aI689520775
aI152649863
aI689520776
aI152649864
aI689520777
aI152649865
aI689520778
aI152649866
aI689520779
aI152649867
aI689520780
aI152649868
aI689520781
aI152649869
aI689520782
aI152649870
aI689520783
aI152649871
aI689520784
aI152649872
aI689520785
aI152649873
aI689520786
aI152649874
aI689520787
aI152649875
aI689520788
aI152649876
aI689520789
aI152649877
aI689520790
aI152649878
aI689520791
aI152649879
aI689520792
aI152649880
aI689520793
aI152649881
aI689520794
aI152649882
aI689520795
aI152649883
aI689520796
aI152649884
aI689520797
aI152649885
aI689520798
aI152649886
aI689520799
aI152649887
aI689520800
aI152649888
aI689520801
aI152649889
aI689520802
aI152649890
aI689520803
aI152649891
aI689520804
aI152649892
aI689520805
aI152649893
aI689520806
aI152649894
aI689520807
aI152649895
aI689520808
aI152649896
aI689520809
aI152649897
aI689520810
aI152649898
aI689520811
aI152649899
aI689520812
aI152649900
aI689520813
aI152649901
aI689520814
aI152649902
aI689520815
aI152649903
aI689520816
aI152649904
aI689520817
aI152649905
aI689520818
aI152649906
aI689520819
aI152649907
aI689520820
aI152649908
aI689520821
aI152649909
aI689520822
aI152649910
aI689520823
aI152649911
aI689520824
aI152649912
aI689520825
aI152649913
aI689520826
aI152649914
aI689520827
aI152649915
aI689520828
aI152649916
aI689520829
aI152649917
aI689520830
aI152649918
aI689520831
aI152649919
aI689520832
aI152649920
aI689520833
aI152649921
aI689520834
aI152649922
aI689520835
aI152649923
aI689520836
aI152649924
aI689520837
aI152649925
aI689520838
aI152649926
aI689520839
aI152649927
aI689520840
aI152649928
aI689520841
aI152649929
aI689520842
aI152649930
aI689520843
aI152649931
aI689520844
aI152649932
aI689520845
aI152649933
aI689520846
aI152649934
aI689520847
aI152649935
aI689520848
aI152649936
aI689520849
aI152649937
aI689520850
aI152649938
aI689520851
aI152649939
aI689520852
aI152649940
aI689520853
aI152649941
aI689520854
aI152649942
aI689520855
aI152649943
aI689520856
aI152649944
aI689520857
aI152649945
aI689520858
aI152649946
aI689520859
aI152649947
aI689520860
aI152649948
aI689520861
aI152649949
aI689520862
aI152649950
aI689520863
aI152649951
aI689520864
aI152649952
aI689520865
aI152649953
aI689520866
aI152649954
aI689520867
aI152649955
aI689520868
aI152649956
aI689520869
aI152649957
aI689520870
aI152649958
aI689520871
aI152649959
aI689520872
aI152649960
aI689520873
aI152649961
aI689520874
aI152649962
aI689520875
aI152649963
aI689520876
aI152649964
aI689520877
aI152649965
aI689520878
aI152649966
aI689520879
aI152649967
aI689520880
aI152649968
aI689520881
aI152649969
aI689520882
aI152649970
aI689520883
aI152649971
aI689520884
aI152649972
aI689520885
aI152649973
aI689520886
aI152649974
aI689520887
aI152649975
aI689520888
aI152649976
aI689520889
aI152649977
aI689520890
aI152649978
aI689520891
aI152649979
aI689520892
aI152649980
aI689520893
aI152649981
aI689520894
aI152649982
aI689520895
aI152649983
aI689520896
aI152649984
aI689520897
aI152649985
aI689520898
aI152649986
aI689504257
aI689504258
aI689504259
aI689504260
aI689504261
aI689504262
aI689504263
aI689504264
aI689504265
aI689504266
aI689504267
aI689504268
aI689504269
aI689504270
aI689504271
aI689504272
aI689504273
aI689504274
aI689504275
aI689504276
aI689504277
aI689504278
aI689504279
aI689504280
aI689504281
aI689504282
aI689504283
aI689504284
aI689504285
aI689504286
aI689504287
aI689504288
aF1555676133.631
ttRp2171
.S'dd20918e88adc0e4796f06ef23eeaa83691f7111e0457ad4c1e3cfb26f9028d480d9503635d5b2a1451ccbda3a302a22bfc36dd3ec1e0ff23f193b979dbfebdf'
p1
.